
nand.elf:     file format elf32-tradlittlemips

Disassembly of section .text:

80000000 <_start>:
80000000:	ff ff ff ff                                         ....

80000004 <reset>:
80000004:	04110001 	bal	8000000c <reset+0x8>
80000008:	00000000 	nop
8000000c:	03e0e021 	move	gp,ra
80000010:	8fe90000 	lw	t1,0(ra)
80000014:	0120e021 	move	gp,t1
80000018:	3c1d8000 	lui	sp,0x8000
8000001c:	37bd4000 	ori	sp,sp,0x4000
80000020:	3c198000 	lui	t9,0x8000
80000024:	27390c8c 	addiu	t9,t9,3212
80000028:	03200008 	jr	t9
8000002c:	00000000 	nop

80000030 <pll_init>:
80000030:	27bdff60 	addiu	sp,sp,-160
80000034:	3c038000 	lui	v1,0x8000
80000038:	24630e70 	addiu	v1,v1,3696
8000003c:	03a02021 	move	a0,sp
80000040:	24620080 	addiu	v0,v1,128
80000044:	8c650000 	lw	a1,0(v1)
80000048:	8c660004 	lw	a2,4(v1)
8000004c:	8c670008 	lw	a3,8(v1)
80000050:	8c68000c 	lw	t0,12(v1)
80000054:	ac850000 	sw	a1,0(a0)
80000058:	ac860004 	sw	a2,4(a0)
8000005c:	ac870008 	sw	a3,8(a0)
80000060:	ac88000c 	sw	t0,12(a0)
80000064:	24630010 	addiu	v1,v1,16
80000068:	1462fff6 	bne	v1,v0,80000044 <pll_init+0x14>
8000006c:	24840010 	addiu	a0,a0,16
80000070:	3c028000 	lui	v0,0x8000
80000074:	8c420ef8 	lw	v0,3832(v0)
80000078:	8c650000 	lw	a1,0(v1)
8000007c:	ac850000 	sw	a1,0(a0)
80000080:	3c058000 	lui	a1,0x8000
80000084:	8ca50ef4 	lw	a1,3828(a1)
80000088:	3c048000 	lui	a0,0x8000
8000008c:	8c840efc 	lw	a0,3836(a0)
80000090:	00021080 	sll	v0,v0,0x2
80000094:	005d1021 	addu	v0,v0,sp
80000098:	3c038000 	lui	v1,0x8000
8000009c:	8c630f00 	lw	v1,3840(v1)
800000a0:	8c480000 	lw	t0,0(v0)
800000a4:	3c028000 	lui	v0,0x8000
800000a8:	8c420f04 	lw	v0,3844(v0)
800000ac:	00052880 	sll	a1,a1,0x2
800000b0:	00042080 	sll	a0,a0,0x2
800000b4:	00bd2821 	addu	a1,a1,sp
800000b8:	009d2021 	addu	a0,a0,sp
800000bc:	00031880 	sll	v1,v1,0x2
800000c0:	8ca60000 	lw	a2,0(a1)
800000c4:	8c870000 	lw	a3,0(a0)
800000c8:	007d1821 	addu	v1,v1,sp
800000cc:	00021080 	sll	v0,v0,0x2
800000d0:	8c640000 	lw	a0,0(v1)
800000d4:	005d1021 	addu	v0,v0,sp
800000d8:	8c430000 	lw	v1,0(v0)
800000dc:	00084100 	sll	t0,t0,0x4
800000e0:	00c83025 	or	a2,a2,t0
800000e4:	00073a00 	sll	a3,a3,0x8
800000e8:	00c73025 	or	a2,a2,a3
800000ec:	00042300 	sll	a0,a0,0xc
800000f0:	00c43025 	or	a2,a2,a0
800000f4:	00031c00 	sll	v1,v1,0x10
800000f8:	00c33025 	or	a2,a2,v1
800000fc:	3c024000 	lui	v0,0x4000
80000100:	00c23025 	or	a2,a2,v0
80000104:	3c050aba 	lui	a1,0xaba
80000108:	3c021575 	lui	v0,0x1575
8000010c:	3c040020 	lui	a0,0x20
80000110:	00c42024 	and	a0,a2,a0
80000114:	34a59500 	ori	a1,a1,0x9500
80000118:	34422a00 	ori	v0,v0,0x2a00
8000011c:	3c03165e 	lui	v1,0x165e
80000120:	00a4100a 	movz	v0,a1,a0
80000124:	34639f81 	ori	v1,v1,0x9f81
80000128:	00430018 	mult	v0,v1
8000012c:	3c041d00 	lui	a0,0x1d00
80000130:	34840120 	ori	a0,a0,0x120
80000134:	00001010 	mfhi	v0
80000138:	00021583 	sra	v0,v0,0x16
8000013c:	2442ffff 	addiu	v0,v0,-1
80000140:	3c01b000 	lui	at,0xb000
80000144:	ac22006c 	sw	v0,108(at)
80000148:	3c01b000 	lui	at,0xb000
8000014c:	ac260000 	sw	a2,0(at)
80000150:	3c01b000 	lui	at,0xb000
80000154:	ac240010 	sw	a0,16(at)
80000158:	03e00008 	jr	ra
8000015c:	27bd00a0 	addiu	sp,sp,160

80000160 <sdram_init>:
80000160:	3c028000 	lui	v0,0x8000
80000164:	8c420f08 	lw	v0,3848(v0)
80000168:	3c038000 	lui	v1,0x8000
8000016c:	8c630f0c 	lw	v1,3852(v1)
80000170:	27bdffc8 	addiu	sp,sp,-56
80000174:	afa20000 	sw	v0,0(sp)
80000178:	afa30004 	sw	v1,4(sp)
8000017c:	3c028000 	lui	v0,0x8000
80000180:	8c420f10 	lw	v0,3856(v0)
80000184:	3c038000 	lui	v1,0x8000
80000188:	8c630f14 	lw	v1,3860(v1)
8000018c:	3c048000 	lui	a0,0x8000
80000190:	24840f18 	addiu	a0,a0,3864
80000194:	afa20008 	sw	v0,8(sp)
80000198:	afa3000c 	sw	v1,12(sp)
8000019c:	27a20010 	addiu	v0,sp,16
800001a0:	24830020 	addiu	v1,a0,32
800001a4:	8c850000 	lw	a1,0(a0)
800001a8:	8c860004 	lw	a2,4(a0)
800001ac:	8c870008 	lw	a3,8(a0)
800001b0:	8c88000c 	lw	t0,12(a0)
800001b4:	ac450000 	sw	a1,0(v0)
800001b8:	ac460004 	sw	a2,4(v0)
800001bc:	ac470008 	sw	a3,8(v0)
800001c0:	ac48000c 	sw	t0,12(v0)
800001c4:	24840010 	addiu	a0,a0,16
800001c8:	1483fff6 	bne	a0,v1,800001a4 <sdram_init+0x44>
800001cc:	24420010 	addiu	v0,v0,16
800001d0:	8c830000 	lw	v1,0(a0)
800001d4:	8c850004 	lw	a1,4(a0)
800001d8:	ac430000 	sw	v1,0(v0)
800001dc:	ac450004 	sw	a1,4(v0)
800001e0:	3c02b000 	lui	v0,0xb000
800001e4:	8c420000 	lw	v0,0(v0)
800001e8:	3c051575 	lui	a1,0x1575
800001ec:	34a52a00 	ori	a1,a1,0x2a00
800001f0:	3042000f 	andi	v0,v0,0xf
800001f4:	00021080 	sll	v0,v0,0x2
800001f8:	005d1021 	addu	v0,v0,sp
800001fc:	8c440010 	lw	a0,16(v0)
80000200:	3c03b000 	lui	v1,0xb000
80000204:	8c630000 	lw	v1,0(v1)
80000208:	3c063b9a 	lui	a2,0x3b9a
8000020c:	70852002 	mul	a0,a0,a1
80000210:	3063f000 	andi	v1,v1,0xf000
80000214:	00031a82 	srl	v1,v1,0xa
80000218:	007d1821 	addu	v1,v1,sp
8000021c:	8c650010 	lw	a1,16(v1)
80000220:	34c6ca00 	ori	a2,a2,0xca00
80000224:	2407002d 	li	a3,45
80000228:	24080014 	li	t0,20
8000022c:	240a0007 	li	t2,7
80000230:	24090041 	li	t1,65
80000234:	14a00002 	bnez	a1,80000240 <sdram_init+0xe0>
80000238:	00000000 	nop
8000023c:	000001cd 	break	0x7
80000240:	3c01b301 	lui	at,0xb301
80000244:	ac200000 	sw	zero,0(at)
80000248:	8fa30008 	lw	v1,8(sp)
8000024c:	3c02042a 	lui	v0,0x42a
80000250:	3c01b301 	lui	at,0xb301
80000254:	a4200084 	sh	zero,132(at)
80000258:	00626825 	or	t5,v1,v0
8000025c:	3c020002 	lui	v0,0x2
80000260:	0085001b 	divu	zero,a0,a1
80000264:	0062c025 	or	t8,v1,v0
80000268:	240b0003 	li	t3,3
8000026c:	3c05b301 	lui	a1,0xb301
80000270:	34a5a000 	ori	a1,a1,0xa000
80000274:	240effff 	li	t6,-1
80000278:	00002012 	mflo	a0
	...
80000284:	00c4001b 	divu	zero,a2,a0
80000288:	00006012 	mflo	t4
	...
80000294:	00ec001b 	divu	zero,a3,t4
80000298:	8fa20000 	lw	v0,0(sp)
8000029c:	344f0002 	ori	t7,v0,0x2
800002a0:	24020004 	li	v0,4
800002a4:	01e52825 	or	a1,t7,a1
800002a8:	00003812 	mflo	a3
800002ac:	2ce30004 	sltiu	v1,a3,4
800002b0:	0043380b 	movn	a3,v0,v1
800002b4:	010c001b 	divu	zero,t0,t4
800002b8:	2ce4000c 	sltiu	a0,a3,12
800002bc:	2403000b 	li	v1,11
800002c0:	0064380a 	movz	a3,v1,a0
800002c4:	24e2fffc 	addiu	v0,a3,-4
800002c8:	00021340 	sll	v0,v0,0xd
800002cc:	01a26825 	or	t5,t5,v0
800002d0:	00004012 	mflo	t0
800002d4:	2d020004 	sltiu	v0,t0,4
800002d8:	01003821 	move	a3,t0
800002dc:	014c001b 	divu	zero,t2,t4
800002e0:	0162380a 	movz	a3,t3,v0
800002e4:	000722c0 	sll	a0,a3,0xb
800002e8:	2d020008 	sltiu	v0,t0,8
800002ec:	01003821 	move	a3,t0
800002f0:	0142380a 	movz	a3,t2,v0
800002f4:	00071a00 	sll	v1,a3,0x8
800002f8:	01a46825 	or	t5,t5,a0
800002fc:	01a36825 	or	t5,t5,v1
80000300:	00003012 	mflo	a2
80000304:	2cc20004 	sltiu	v0,a2,4
80000308:	00c03821 	move	a3,a2
8000030c:	012c001b 	divu	zero,t1,t4
80000310:	0162380a 	movz	a3,t3,v0
80000314:	00071940 	sll	v1,a3,0x5
80000318:	01a36825 	or	t5,t5,v1
8000031c:	2403000e 	li	v1,14
80000320:	00004812 	mflo	t1
80000324:	2d24000f 	sltiu	a0,t1,15
80000328:	00003812 	mflo	a3
8000032c:	0064380a 	movz	a3,v1,a0
80000330:	24e20001 	addiu	v0,a3,1
80000334:	00021042 	srl	v0,v0,0x1
80000338:	00021080 	sll	v0,v0,0x2
8000033c:	01a26825 	or	t5,t5,v0
80000340:	3c070005 	lui	a3,0x5
80000344:	3c01b301 	lui	at,0xb301
80000348:	ac2d0080 	sw	t5,128(at)
8000034c:	34e77e3f 	ori	a3,a3,0x7e3f
80000350:	a0a00000 	sb	zero,0(a1)
80000354:	24e7fffc 	addiu	a3,a3,-4
80000358:	14eeffff 	bne	a3,t6,80000358 <sdram_init+0x1f8>
8000035c:	24e7fffc 	addiu	a3,a3,-4
80000360:	24033d09 	li	v1,15625
80000364:	006c001b 	divu	zero,v1,t4
80000368:	3c020100 	lui	v0,0x100
8000036c:	01a21025 	or	v0,t5,v0
80000370:	3c01b301 	lui	at,0xb301
80000374:	ac220080 	sw	v0,128(at)
80000378:	240200ff 	li	v0,255
8000037c:	15800002 	bnez	t4,80000388 <sdram_init+0x228>
80000380:	00000000 	nop
80000384:	000001cd 	break	0x7
80000388:	2405ffff 	li	a1,-1
8000038c:	00001812 	mflo	v1
80000390:	00031982 	srl	v1,v1,0x6
80000394:	24670001 	addiu	a3,v1,1
80000398:	2ce40100 	sltiu	a0,a3,256
8000039c:	0044380a 	movz	a3,v0,a0
800003a0:	3c01b301 	lui	at,0xb301
800003a4:	a427008c 	sh	a3,140(at)
800003a8:	24020003 	li	v0,3
800003ac:	3c070005 	lui	a3,0x5
800003b0:	3c01b301 	lui	at,0xb301
800003b4:	a4200088 	sh	zero,136(at)
800003b8:	34e77e3f 	ori	a3,a3,0x7e3f
800003bc:	3c01b301 	lui	at,0xb301
800003c0:	a4220084 	sh	v0,132(at)
800003c4:	24e7fffc 	addiu	a3,a3,-4
800003c8:	14e5fffe 	bne	a3,a1,800003c4 <sdram_init+0x264>
800003cc:	3c02b301 	lui	v0,0xb301
800003d0:	3c030180 	lui	v1,0x180
800003d4:	3442a000 	ori	v0,v0,0xa000
800003d8:	01a32025 	or	a0,t5,v1
800003dc:	01e21025 	or	v0,t7,v0
800003e0:	03031825 	or	v1,t8,v1
800003e4:	3c01b301 	lui	at,0xb301
800003e8:	ac230080 	sw	v1,128(at)
800003ec:	a0400000 	sb	zero,0(v0)
800003f0:	3c01b301 	lui	at,0xb301
800003f4:	ac240080 	sw	a0,128(at)
800003f8:	03e00008 	jr	ra
800003fc:	27bd0038 	addiu	sp,sp,56

80000400 <serial_init>:
80000400:	27bdffe8 	addiu	sp,sp,-24
80000404:	afb00010 	sw	s0,16(sp)
80000408:	3c03b003 	lui	v1,0xb003
8000040c:	3c10b003 	lui	s0,0xb003
80000410:	36100008 	ori	s0,s0,0x8
80000414:	34630004 	ori	v1,v1,0x4
80000418:	2402ffef 	li	v0,-17
8000041c:	3c05b003 	lui	a1,0xb003
80000420:	3c04b003 	lui	a0,0xb003
80000424:	a0600000 	sb	zero,0(v1)
80000428:	34a5000c 	ori	a1,a1,0xc
8000042c:	a2020000 	sb	v0,0(s0)
80000430:	34840020 	ori	a0,a0,0x20
80000434:	2403fffc 	li	v1,-4
80000438:	24020003 	li	v0,3
8000043c:	a0830000 	sb	v1,0(a0)
80000440:	a0a20000 	sb	v0,0(a1)
80000444:	afbf0014 	sw	ra,20(sp)
80000448:	0c00011b 	jal	8000046c <serial_setbrg>
8000044c:	00000000 	nop
80000450:	24030017 	li	v1,23
80000454:	a2030000 	sb	v1,0(s0)
80000458:	8fbf0014 	lw	ra,20(sp)
8000045c:	8fb00010 	lw	s0,16(sp)
80000460:	00001021 	move	v0,zero
80000464:	03e00008 	jr	ra
80000468:	27bd0018 	addiu	sp,sp,24

8000046c <serial_setbrg>:
8000046c:	3c05b003 	lui	a1,0xb003
80000470:	34a5000c 	ori	a1,a1,0xc
80000474:	90a20000 	lbu	v0,0(a1)
80000478:	3c04b003 	lui	a0,0xb003
8000047c:	34840004 	ori	a0,a0,0x4
80000480:	304200ff 	andi	v0,v0,0xff
80000484:	34420080 	ori	v0,v0,0x80
80000488:	a0a20000 	sb	v0,0(a1)
8000048c:	2403000d 	li	v1,13
80000490:	3042007f 	andi	v0,v0,0x7f
80000494:	a0800000 	sb	zero,0(a0)
80000498:	3c01b003 	lui	at,0xb003
8000049c:	a0230000 	sb	v1,0(at)
800004a0:	03e00008 	jr	ra
800004a4:	a0a20000 	sb	v0,0(a1)

800004a8 <serial_putc>:
800004a8:	27bdffe8 	addiu	sp,sp,-24
800004ac:	00042600 	sll	a0,a0,0x18
800004b0:	afb00010 	sw	s0,16(sp)
800004b4:	2402000a 	li	v0,10
800004b8:	00048603 	sra	s0,a0,0x18
800004bc:	1202000d 	beq	s0,v0,800004f4 <serial_putc+0x4c>
800004c0:	afbf0014 	sw	ra,20(sp)
800004c4:	24030060 	li	v1,96
800004c8:	3c02b003 	lui	v0,0xb003
800004cc:	90420014 	lbu	v0,20(v0)
800004d0:	30420060 	andi	v0,v0,0x60
800004d4:	1443fffc 	bne	v0,v1,800004c8 <serial_putc+0x20>
800004d8:	00000000 	nop
800004dc:	3c01b003 	lui	at,0xb003
800004e0:	a0300000 	sb	s0,0(at)
800004e4:	8fbf0014 	lw	ra,20(sp)
800004e8:	8fb00010 	lw	s0,16(sp)
800004ec:	03e00008 	jr	ra
800004f0:	27bd0018 	addiu	sp,sp,24
800004f4:	0c00012a 	jal	800004a8 <serial_putc>
800004f8:	2404000d 	li	a0,13
800004fc:	08000132 	j	800004c8 <serial_putc+0x20>
80000500:	24030060 	li	v1,96

80000504 <serial_puts>:
80000504:	27bdffe8 	addiu	sp,sp,-24
80000508:	afb00010 	sw	s0,16(sp)
8000050c:	afbf0014 	sw	ra,20(sp)
80000510:	90820000 	lbu	v0,0(a0)
80000514:	00021600 	sll	v0,v0,0x18
80000518:	10400009 	beqz	v0,80000540 <serial_puts+0x3c>
8000051c:	00808021 	move	s0,a0
80000520:	00402021 	move	a0,v0
80000524:	00042603 	sra	a0,a0,0x18
80000528:	0c00012a 	jal	800004a8 <serial_putc>
8000052c:	26100001 	addiu	s0,s0,1
80000530:	92020000 	lbu	v0,0(s0)
80000534:	00021600 	sll	v0,v0,0x18
80000538:	1440fffa 	bnez	v0,80000524 <serial_puts+0x20>
8000053c:	00402021 	move	a0,v0
80000540:	8fbf0014 	lw	ra,20(sp)
80000544:	8fb00010 	lw	s0,16(sp)
80000548:	03e00008 	jr	ra
8000054c:	27bd0018 	addiu	sp,sp,24

80000550 <serial_getc>:
80000550:	27bdffe8 	addiu	sp,sp,-24
80000554:	afbf0010 	sw	ra,16(sp)
80000558:	0c000160 	jal	80000580 <serial_tstc>
8000055c:	00000000 	nop
80000560:	1040fffd 	beqz	v0,80000558 <serial_getc+0x8>
80000564:	00000000 	nop
80000568:	3c02b003 	lui	v0,0xb003
8000056c:	90420000 	lbu	v0,0(v0)
80000570:	8fbf0010 	lw	ra,16(sp)
80000574:	304200ff 	andi	v0,v0,0xff
80000578:	03e00008 	jr	ra
8000057c:	27bd0018 	addiu	sp,sp,24

80000580 <serial_tstc>:
80000580:	3c02b003 	lui	v0,0xb003
80000584:	90420014 	lbu	v0,20(v0)
80000588:	03e00008 	jr	ra
8000058c:	30420001 	andi	v0,v0,0x1

80000590 <rs_correct>:
80000590:	000510c0 	sll	v0,a1,0x3
80000594:	00451021 	addu	v0,v0,a1
80000598:	30470007 	andi	a3,v0,0x7
8000059c:	2ce30001 	sltiu	v1,a3,1
800005a0:	000210c3 	sra	v0,v0,0x3
800005a4:	00431023 	subu	v0,v0,v1
800005a8:	00822021 	addu	a0,a0,v0
800005ac:	90850000 	lbu	a1,0(a0)
800005b0:	9088ffff 	lbu	t0,-1(a0)
800005b4:	24e2ffff 	addiu	v0,a3,-1
800005b8:	00052a00 	sll	a1,a1,0x8
800005bc:	24030007 	li	v1,7
800005c0:	0047180b 	movn	v1,v0,a3
800005c4:	00a82825 	or	a1,a1,t0
800005c8:	00651007 	srav	v0,a1,v1
800005cc:	304701ff 	andi	a3,v0,0x1ff
800005d0:	240201ff 	li	v0,511
800005d4:	00621004 	sllv	v0,v0,v1
800005d8:	00e63026 	xor	a2,a3,a2
800005dc:	00021027 	nor	v0,zero,v0
800005e0:	30c7ffff 	andi	a3,a2,0xffff
800005e4:	3042ffff 	andi	v0,v0,0xffff
800005e8:	00a21024 	and	v0,a1,v0
800005ec:	00671804 	sllv	v1,a3,v1
800005f0:	00431025 	or	v0,v0,v1
800005f4:	3045ffff 	andi	a1,v0,0xffff
800005f8:	00051a02 	srl	v1,a1,0x8
800005fc:	a0830000 	sb	v1,0(a0)
80000600:	03e00008 	jr	ra
80000604:	a085ffff 	sb	a1,-1(a0)

80000608 <nand_read_oob>:
80000608:	3c078000 	lui	a3,0x8000
8000060c:	8ce71044 	lw	a3,4164(a3)
80000610:	24030800 	li	v1,2048
80000614:	00604021 	move	t0,v1
80000618:	38e20800 	xori	v0,a3,0x800
8000061c:	10e30048 	beq	a3,v1,80000740 <nand_read_oob+0x138>
80000620:	0002400b 	movn	t0,zero,v0
80000624:	24020050 	li	v0,80
80000628:	3c01b801 	lui	at,0xb801
8000062c:	a0228000 	sb	v0,-32768(at)
80000630:	24090800 	li	t1,2048
80000634:	3c01b801 	lui	at,0xb801
80000638:	a0280000 	sb	t0,0(at)
8000063c:	10e9003d 	beq	a3,t1,80000734 <nand_read_oob+0x12c>
80000640:	00081203 	sra	v0,t0,0x8
80000644:	3c038000 	lui	v1,0x8000
80000648:	8c631050 	lw	v1,4176(v1)
8000064c:	00041203 	sra	v0,a0,0x8
80000650:	3c01b801 	lui	at,0xb801
80000654:	a0240000 	sb	a0,0(at)
80000658:	3c01b801 	lui	at,0xb801
8000065c:	a0220000 	sb	v0,0(at)
80000660:	24020003 	li	v0,3
80000664:	10620030 	beq	v1,v0,80000728 <nand_read_oob+0x120>
80000668:	00041403 	sra	v0,a0,0x10
8000066c:	10e9002a 	beq	a3,t1,80000718 <nand_read_oob+0x110>
80000670:	24020030 	li	v0,48
80000674:	24032710 	li	v1,10000
80000678:	3c074000 	lui	a3,0x4000
8000067c:	2404ffff 	li	a0,-1
80000680:	3c02b001 	lui	v0,0xb001
80000684:	8c420200 	lw	v0,512(v0)
80000688:	00471024 	and	v0,v0,a3
8000068c:	10400003 	beqz	v0,8000069c <nand_read_oob+0x94>
80000690:	2463ffff 	addiu	v1,v1,-1
80000694:	1464fffa 	bne	v1,a0,80000680 <nand_read_oob+0x78>
80000698:	00000000 	nop
8000069c:	3c034000 	lui	v1,0x4000
800006a0:	3c02b001 	lui	v0,0xb001
800006a4:	8c420200 	lw	v0,512(v0)
800006a8:	00431024 	and	v0,v0,v1
800006ac:	1040fffc 	beqz	v0,800006a0 <nand_read_oob+0x98>
800006b0:	24020008 	li	v0,8
800006b4:	3c038000 	lui	v1,0x8000
800006b8:	8c631040 	lw	v1,4160(v1)
800006bc:	1062000c 	beq	v1,v0,800006f0 <nand_read_oob+0xe8>
800006c0:	00000000 	nop
800006c4:	18c00008 	blez	a2,800006e8 <nand_read_oob+0xe0>
800006c8:	00002021 	move	a0,zero
800006cc:	3c02b800 	lui	v0,0xb800
800006d0:	94420000 	lhu	v0,0(v0)
800006d4:	24840002 	addiu	a0,a0,2
800006d8:	0086182a 	slt	v1,a0,a2
800006dc:	a4a20000 	sh	v0,0(a1)
800006e0:	1460fffa 	bnez	v1,800006cc <nand_read_oob+0xc4>
800006e4:	24a50002 	addiu	a1,a1,2
800006e8:	03e00008 	jr	ra
800006ec:	00001021 	move	v0,zero
800006f0:	18c0fffd 	blez	a2,800006e8 <nand_read_oob+0xe0>
800006f4:	00000000 	nop
800006f8:	3c02b800 	lui	v0,0xb800
800006fc:	90420000 	lbu	v0,0(v0)
80000700:	24c6ffff 	addiu	a2,a2,-1
80000704:	a0a20000 	sb	v0,0(a1)
80000708:	14c0fffb 	bnez	a2,800006f8 <nand_read_oob+0xf0>
8000070c:	24a50001 	addiu	a1,a1,1
80000710:	080001ba 	j	800006e8 <nand_read_oob+0xe0>
80000714:	00000000 	nop
80000718:	3c01b801 	lui	at,0xb801
8000071c:	a0228000 	sb	v0,-32768(at)
80000720:	0800019e 	j	80000678 <nand_read_oob+0x70>
80000724:	24032710 	li	v1,10000
80000728:	3c01b801 	lui	at,0xb801
8000072c:	0800019b 	j	8000066c <nand_read_oob+0x64>
80000730:	a0220000 	sb	v0,0(at)
80000734:	3c01b801 	lui	at,0xb801
80000738:	08000191 	j	80000644 <nand_read_oob+0x3c>
8000073c:	a0220000 	sb	v0,0(at)
80000740:	3c01b801 	lui	at,0xb801
80000744:	a0208000 	sb	zero,-32768(at)
80000748:	0800018d 	j	80000634 <nand_read_oob+0x2c>
8000074c:	24090800 	li	t1,2048

80000750 <nand_read_page>:
80000750:	3c028000 	lui	v0,0x8000
80000754:	8c421054 	lw	v0,4180(v0)
80000758:	27bdffd8 	addiu	sp,sp,-40
8000075c:	afb20018 	sw	s2,24(sp)
80000760:	70821802 	mul	v1,a0,v0
80000764:	00c09021 	move	s2,a2
80000768:	3c068000 	lui	a2,0x8000
8000076c:	8cc61048 	lw	a2,4168(a2)
80000770:	afb00010 	sw	s0,16(sp)
80000774:	afb3001c 	sw	s3,28(sp)
80000778:	afbf0024 	sw	ra,36(sp)
8000077c:	afb40020 	sw	s4,32(sp)
80000780:	afb10014 	sw	s1,20(sp)
80000784:	00e09821 	move	s3,a3
80000788:	00658021 	addu	s0,v1,a1
8000078c:	02002021 	move	a0,s0
80000790:	0c000182 	jal	80000608 <nand_read_oob>
80000794:	00e02821 	move	a1,a3
80000798:	3c048000 	lui	a0,0x8000
8000079c:	8c841044 	lw	a0,4164(a0)
800007a0:	24050800 	li	a1,2048
800007a4:	3c01b801 	lui	at,0xb801
800007a8:	a0208000 	sb	zero,-32768(at)
800007ac:	3c01b801 	lui	at,0xb801
800007b0:	108500ac 	beq	a0,a1,80000a64 <nand_read_page+0x314>
800007b4:	a0200000 	sb	zero,0(at)
800007b8:	3c038000 	lui	v1,0x8000
800007bc:	8c631050 	lw	v1,4176(v1)
800007c0:	00101203 	sra	v0,s0,0x8
800007c4:	3c01b801 	lui	at,0xb801
800007c8:	a0300000 	sb	s0,0(at)
800007cc:	3c01b801 	lui	at,0xb801
800007d0:	a0220000 	sb	v0,0(at)
800007d4:	24020003 	li	v0,3
800007d8:	1062009f 	beq	v1,v0,80000a58 <nand_read_page+0x308>
800007dc:	00101403 	sra	v0,s0,0x10
800007e0:	10850099 	beq	a0,a1,80000a48 <nand_read_page+0x2f8>
800007e4:	24020030 	li	v0,48
800007e8:	24032710 	li	v1,10000
800007ec:	3c054000 	lui	a1,0x4000
800007f0:	2404ffff 	li	a0,-1
800007f4:	3c02b001 	lui	v0,0xb001
800007f8:	8c420200 	lw	v0,512(v0)
800007fc:	00451024 	and	v0,v0,a1
80000800:	10400003 	beqz	v0,80000810 <nand_read_page+0xc0>
80000804:	2463ffff 	addiu	v1,v1,-1
80000808:	1464fffa 	bne	v1,a0,800007f4 <nand_read_page+0xa4>
8000080c:	00000000 	nop
80000810:	3c034000 	lui	v1,0x4000
80000814:	3c02b001 	lui	v0,0xb001
80000818:	8c420200 	lw	v0,512(v0)
8000081c:	00431024 	and	v0,v0,v1
80000820:	1040fffc 	beqz	v0,80000814 <nand_read_page+0xc4>
80000824:	00000000 	nop
80000828:	3c028000 	lui	v0,0x8000
8000082c:	8c42104c 	lw	v0,4172(v0)
80000830:	02408021 	move	s0,s2
80000834:	18400045 	blez	v0,8000094c <nand_read_page+0x1fc>
80000838:	00008821 	move	s1,zero
8000083c:	3c1401ff 	lui	s4,0x1ff
80000840:	3c038000 	lui	v1,0x8000
80000844:	8c631040 	lw	v1,4160(v1)
80000848:	24020007 	li	v0,7
8000084c:	3c05b301 	lui	a1,0xb301
80000850:	3c01b301 	lui	at,0xb301
80000854:	ac200114 	sw	zero,276(at)
80000858:	3c01b301 	lui	at,0xb301
8000085c:	ac220100 	sw	v0,256(at)
80000860:	24020008 	li	v0,8
80000864:	1062006e 	beq	v1,v0,80000a20 <nand_read_page+0x2d0>
80000868:	34a50108 	ori	a1,a1,0x108
8000086c:	02001821 	move	v1,s0
80000870:	240401fe 	li	a0,510
80000874:	3c02b800 	lui	v0,0xb800
80000878:	94420000 	lhu	v0,0(v0)
8000087c:	2484fffe 	addiu	a0,a0,-2
80000880:	a4620000 	sh	v0,0(v1)
80000884:	0481fffb 	bgez	a0,80000874 <nand_read_page+0x124>
80000888:	24630002 	addiu	v1,v1,2
8000088c:	001110c0 	sll	v0,s1,0x3
80000890:	00511021 	addu	v0,v0,s1
80000894:	00531021 	addu	v0,v0,s3
80000898:	24430006 	addiu	v1,v0,6
8000089c:	24040008 	li	a0,8
800008a0:	90620000 	lbu	v0,0(v1)
800008a4:	2484ffff 	addiu	a0,a0,-1
800008a8:	24630001 	addiu	v1,v1,1
800008ac:	a0a20000 	sb	v0,0(a1)
800008b0:	0481fffb 	bgez	a0,800008a0 <nand_read_page+0x150>
800008b4:	24a50001 	addiu	a1,a1,1
800008b8:	3c02b301 	lui	v0,0xb301
800008bc:	8c420100 	lw	v0,256(v0)
800008c0:	34420010 	ori	v0,v0,0x10
800008c4:	3c01b301 	lui	at,0xb301
800008c8:	ac220100 	sw	v0,256(at)
800008cc:	3c02b301 	lui	v0,0xb301
800008d0:	8c420114 	lw	v0,276(v0)
800008d4:	30420008 	andi	v0,v0,0x8
800008d8:	1040fffc 	beqz	v0,800008cc <nand_read_page+0x17c>
800008dc:	00000000 	nop
800008e0:	3c02b301 	lui	v0,0xb301
800008e4:	8c420100 	lw	v0,256(v0)
800008e8:	2403fffe 	li	v1,-2
800008ec:	00431024 	and	v0,v0,v1
800008f0:	3c01b301 	lui	at,0xb301
800008f4:	ac220100 	sw	v0,256(at)
800008f8:	3c03b301 	lui	v1,0xb301
800008fc:	8c630114 	lw	v1,276(v1)
80000900:	30620001 	andi	v0,v1,0x1
80000904:	1040000b 	beqz	v0,80000934 <nand_read_page+0x1e4>
80000908:	30620002 	andi	v0,v1,0x2
8000090c:	14400009 	bnez	v0,80000934 <nand_read_page+0x1e4>
80000910:	00031f42 	srl	v1,v1,0x1d
80000914:	24020002 	li	v0,2
80000918:	10620036 	beq	v1,v0,800009f4 <nand_read_page+0x2a4>
8000091c:	2c620003 	sltiu	v0,v1,3
80000920:	1040001e 	beqz	v0,8000099c <nand_read_page+0x24c>
80000924:	24020003 	li	v0,3
80000928:	24020001 	li	v0,1
8000092c:	10620010 	beq	v1,v0,80000970 <nand_read_page+0x220>
80000930:	00000000 	nop
80000934:	3c028000 	lui	v0,0x8000
80000938:	8c42104c 	lw	v0,4172(v0)
8000093c:	26310001 	addiu	s1,s1,1
80000940:	0222102a 	slt	v0,s1,v0
80000944:	1440ffbe 	bnez	v0,80000840 <nand_read_page+0xf0>
80000948:	26100200 	addiu	s0,s0,512
8000094c:	8fbf0024 	lw	ra,36(sp)
80000950:	8fb40020 	lw	s4,32(sp)
80000954:	8fb3001c 	lw	s3,28(sp)
80000958:	8fb20018 	lw	s2,24(sp)
8000095c:	8fb10014 	lw	s1,20(sp)
80000960:	8fb00010 	lw	s0,16(sp)
80000964:	00001021 	move	v0,zero
80000968:	03e00008 	jr	ra
8000096c:	27bd0028 	addiu	sp,sp,40
80000970:	3c02b301 	lui	v0,0xb301
80000974:	8c42011c 	lw	v0,284(v0)
80000978:	3c03b301 	lui	v1,0xb301
8000097c:	8c63011c 	lw	v1,284(v1)
80000980:	02402021 	move	a0,s2
80000984:	00541024 	and	v0,v0,s4
80000988:	00022c02 	srl	a1,v0,0x10
8000098c:	0c000164 	jal	80000590 <rs_correct>
80000990:	306601ff 	andi	a2,v1,0x1ff
80000994:	0800024d 	j	80000934 <nand_read_page+0x1e4>
80000998:	00000000 	nop
8000099c:	1062000c 	beq	v1,v0,800009d0 <nand_read_page+0x280>
800009a0:	24020004 	li	v0,4
800009a4:	1462ffe3 	bne	v1,v0,80000934 <nand_read_page+0x1e4>
800009a8:	00000000 	nop
800009ac:	3c02b301 	lui	v0,0xb301
800009b0:	8c420128 	lw	v0,296(v0)
800009b4:	3c03b301 	lui	v1,0xb301
800009b8:	8c630128 	lw	v1,296(v1)
800009bc:	02402021 	move	a0,s2
800009c0:	00541024 	and	v0,v0,s4
800009c4:	00022c02 	srl	a1,v0,0x10
800009c8:	0c000164 	jal	80000590 <rs_correct>
800009cc:	306601ff 	andi	a2,v1,0x1ff
800009d0:	3c02b301 	lui	v0,0xb301
800009d4:	8c420124 	lw	v0,292(v0)
800009d8:	3c03b301 	lui	v1,0xb301
800009dc:	8c630124 	lw	v1,292(v1)
800009e0:	02402021 	move	a0,s2
800009e4:	00541024 	and	v0,v0,s4
800009e8:	00022c02 	srl	a1,v0,0x10
800009ec:	0c000164 	jal	80000590 <rs_correct>
800009f0:	306601ff 	andi	a2,v1,0x1ff
800009f4:	3c02b301 	lui	v0,0xb301
800009f8:	8c420120 	lw	v0,288(v0)
800009fc:	3c03b301 	lui	v1,0xb301
80000a00:	8c630120 	lw	v1,288(v1)
80000a04:	02402021 	move	a0,s2
80000a08:	00541024 	and	v0,v0,s4
80000a0c:	00022c02 	srl	a1,v0,0x10
80000a10:	0c000164 	jal	80000590 <rs_correct>
80000a14:	306601ff 	andi	a2,v1,0x1ff
80000a18:	0800025c 	j	80000970 <nand_read_page+0x220>
80000a1c:	00000000 	nop
80000a20:	02001821 	move	v1,s0
80000a24:	240401ff 	li	a0,511
80000a28:	3c02b800 	lui	v0,0xb800
80000a2c:	90420000 	lbu	v0,0(v0)
80000a30:	2484ffff 	addiu	a0,a0,-1
80000a34:	a0620000 	sb	v0,0(v1)
80000a38:	0481fffb 	bgez	a0,80000a28 <nand_read_page+0x2d8>
80000a3c:	24630001 	addiu	v1,v1,1
80000a40:	08000224 	j	80000890 <nand_read_page+0x140>
80000a44:	001110c0 	sll	v0,s1,0x3
80000a48:	3c01b801 	lui	at,0xb801
80000a4c:	a0228000 	sb	v0,-32768(at)
80000a50:	080001fb 	j	800007ec <nand_read_page+0x9c>
80000a54:	24032710 	li	v1,10000
80000a58:	3c01b801 	lui	at,0xb801
80000a5c:	080001f8 	j	800007e0 <nand_read_page+0x90>
80000a60:	a0220000 	sb	v0,0(at)
80000a64:	3c01b801 	lui	at,0xb801
80000a68:	080001ee 	j	800007b8 <nand_read_page+0x68>
80000a6c:	a0200000 	sb	zero,0(at)

80000a70 <nand_load>:
80000a70:	3c078000 	lui	a3,0x8000
80000a74:	8ce71058 	lw	a3,4184(a3)
80000a78:	27bdffd0 	addiu	sp,sp,-48
80000a7c:	afb50024 	sw	s5,36(sp)
80000a80:	0087001a 	div	zero,a0,a3
80000a84:	afb40020 	sw	s4,32(sp)
80000a88:	afb20018 	sw	s2,24(sp)
80000a8c:	afb10014 	sw	s1,20(sp)
80000a90:	afbf0028 	sw	ra,40(sp)
80000a94:	afb3001c 	sw	s3,28(sp)
80000a98:	afb00010 	sw	s0,16(sp)
80000a9c:	3c02b301 	lui	v0,0xb301
80000aa0:	8c420050 	lw	v0,80(v0)
80000aa4:	00a0a821 	move	s5,a1
80000aa8:	00c09021 	move	s2,a2
80000aac:	34420003 	ori	v0,v0,0x3
80000ab0:	3c01b301 	lui	at,0xb301
80000ab4:	ac220050 	sw	v0,80(at)
80000ab8:	0000a021 	move	s4,zero
80000abc:	14e00002 	bnez	a3,80000ac8 <nand_load+0x58>
80000ac0:	00000000 	nop
80000ac4:	000001cd 	break	0x7
80000ac8:	00002012 	mflo	a0
	...
80000ad4:	00a7001a 	div	zero,a1,a3
80000ad8:	00001012 	mflo	v0
80000adc:	18400027 	blez	v0,80000b7c <nand_load+0x10c>
80000ae0:	00808821 	move	s1,a0
80000ae4:	3c038000 	lui	v1,0x8000
80000ae8:	8c631054 	lw	v1,4180(v1)
80000aec:	1860001a 	blez	v1,80000b58 <nand_load+0xe8>
80000af0:	00008021 	move	s0,zero
80000af4:	241300ff 	li	s3,255
80000af8:	02202021 	move	a0,s1
80000afc:	02002821 	move	a1,s0
80000b00:	3c078000 	lui	a3,0x8000
80000b04:	24e71084 	addiu	a3,a3,4228
80000b08:	0c0001d4 	jal	80000750 <nand_read_page>
80000b0c:	02403021 	move	a2,s2
80000b10:	1600002a 	bnez	s0,80000bbc <nand_load+0x14c>
80000b14:	00000000 	nop
80000b18:	3c028000 	lui	v0,0x8000
80000b1c:	8c421080 	lw	v0,4224(v0)
80000b20:	3c038000 	lui	v1,0x8000
80000b24:	00621821 	addu	v1,v1,v0
80000b28:	90631084 	lbu	v1,4228(v1)
80000b2c:	10730023 	beq	v1,s3,80000bbc <nand_load+0x14c>
80000b30:	00000000 	nop
80000b34:	26310001 	addiu	s1,s1,1
80000b38:	3c038000 	lui	v1,0x8000
80000b3c:	8c631054 	lw	v1,4180(v1)
80000b40:	26100001 	addiu	s0,s0,1
80000b44:	0203102a 	slt	v0,s0,v1
80000b48:	1440ffec 	bnez	v0,80000afc <nand_load+0x8c>
80000b4c:	02202021 	move	a0,s1
80000b50:	3c078000 	lui	a3,0x8000
80000b54:	8ce71058 	lw	a3,4184(a3)
80000b58:	02a7001a 	div	zero,s5,a3
80000b5c:	26940001 	addiu	s4,s4,1
80000b60:	14e00002 	bnez	a3,80000b6c <nand_load+0xfc>
80000b64:	00000000 	nop
80000b68:	000001cd 	break	0x7
80000b6c:	00001012 	mflo	v0
80000b70:	0282102a 	slt	v0,s4,v0
80000b74:	1440ffdd 	bnez	v0,80000aec <nand_load+0x7c>
80000b78:	26310001 	addiu	s1,s1,1
80000b7c:	3c03b301 	lui	v1,0xb301
80000b80:	8c630050 	lw	v1,80(v1)
80000b84:	8fbf0028 	lw	ra,40(sp)
80000b88:	8fb50024 	lw	s5,36(sp)
80000b8c:	8fb40020 	lw	s4,32(sp)
80000b90:	8fb3001c 	lw	s3,28(sp)
80000b94:	8fb20018 	lw	s2,24(sp)
80000b98:	8fb10014 	lw	s1,20(sp)
80000b9c:	8fb00010 	lw	s0,16(sp)
80000ba0:	2404fffd 	li	a0,-3
80000ba4:	00001021 	move	v0,zero
80000ba8:	00641824 	and	v1,v1,a0
80000bac:	3c01b301 	lui	at,0xb301
80000bb0:	ac230050 	sw	v1,80(at)
80000bb4:	03e00008 	jr	ra
80000bb8:	27bd0030 	addiu	sp,sp,48
80000bbc:	3c028000 	lui	v0,0x8000
80000bc0:	8c421044 	lw	v0,4164(v0)
80000bc4:	080002ce 	j	80000b38 <nand_load+0xc8>
80000bc8:	02429021 	addu	s2,s2,v0

80000bcc <gpio_init>:
80000bcc:	27bdfff8 	addiu	sp,sp,-8
80000bd0:	afb10004 	sw	s1,4(sp)
80000bd4:	afb00000 	sw	s0,0(sp)
80000bd8:	3c0eb001 	lui	t6,0xb001
80000bdc:	3c0fb001 	lui	t7,0xb001
80000be0:	3c10b001 	lui	s0,0xb001
80000be4:	3c11b001 	lui	s1,0xb001
80000be8:	3c0481f9 	lui	a0,0x81f9
80000bec:	2402ffff 	li	v0,-1
80000bf0:	3484ffff 	ori	a0,a0,0xffff
80000bf4:	35ce0044 	ori	t6,t6,0x44
80000bf8:	35ef0058 	ori	t7,t7,0x58
80000bfc:	36100034 	ori	s0,s0,0x34
80000c00:	36310144 	ori	s1,s1,0x144
80000c04:	adc20000 	sw	v0,0(t6)
80000c08:	ade20000 	sw	v0,0(t7)
80000c0c:	ae020000 	sw	v0,0(s0)
80000c10:	ae240000 	sw	a0,0(s1)
80000c14:	8fb00000 	lw	s0,0(sp)
80000c18:	8fb10004 	lw	s1,4(sp)
80000c1c:	3c06b001 	lui	a2,0xb001
80000c20:	3c07b001 	lui	a3,0xb001
80000c24:	3c08b001 	lui	t0,0xb001
80000c28:	3c09b001 	lui	t1,0xb001
80000c2c:	3c0ab001 	lui	t2,0xb001
80000c30:	3c0bb001 	lui	t3,0xb001
80000c34:	3c0cb001 	lui	t4,0xb001
80000c38:	3c0db001 	lui	t5,0xb001
80000c3c:	3c030700 	lui	v1,0x700
80000c40:	3c050600 	lui	a1,0x600
80000c44:	34c60158 	ori	a2,a2,0x158
80000c48:	34e70134 	ori	a3,a3,0x134
80000c4c:	35080244 	ori	t0,t0,0x244
80000c50:	35290258 	ori	t1,t1,0x258
80000c54:	354a0234 	ori	t2,t2,0x234
80000c58:	356b0344 	ori	t3,t3,0x344
80000c5c:	358c0354 	ori	t4,t4,0x354
80000c60:	35ad0334 	ori	t5,t5,0x334
80000c64:	acc40000 	sw	a0,0(a2)
80000c68:	ace40000 	sw	a0,0(a3)
80000c6c:	ad030000 	sw	v1,0(t0)
80000c70:	ad230000 	sw	v1,0(t1)
80000c74:	ad430000 	sw	v1,0(t2)
80000c78:	ad650000 	sw	a1,0(t3)
80000c7c:	ad850000 	sw	a1,0(t4)
80000c80:	ada50000 	sw	a1,0(t5)
80000c84:	03e00008 	jr	ra
80000c88:	27bd0008 	addiu	sp,sp,8

80000c8c <nand_boot>:
80000c8c:	27bdffe8 	addiu	sp,sp,-24
80000c90:	afbf0010 	sw	ra,16(sp)
80000c94:	0c0002f3 	jal	80000bcc <gpio_init>
80000c98:	00000000 	nop
80000c9c:	0c000100 	jal	80000400 <serial_init>
80000ca0:	00000000 	nop
80000ca4:	3c048000 	lui	a0,0x8000
80000ca8:	0c000141 	jal	80000504 <serial_puts>
80000cac:	24840f90 	addiu	a0,a0,3984
80000cb0:	0c00000c 	jal	80000030 <pll_init>
80000cb4:	00000000 	nop
80000cb8:	0c000058 	jal	80000160 <sdram_init>
80000cbc:	00000000 	nop
80000cc0:	3c048000 	lui	a0,0x8000
80000cc4:	0c000141 	jal	80000504 <serial_puts>
80000cc8:	24840fb4 	addiu	a0,a0,4020
80000ccc:	3c04b301 	lui	a0,0xb301
80000cd0:	0c00037d 	jal	80000df4 <serial_puts_hex>
80000cd4:	8c840080 	lw	a0,128(a0)
80000cd8:	3c03b301 	lui	v1,0xb301
80000cdc:	8c630000 	lw	v1,0(v1)
80000ce0:	24020002 	li	v0,2
80000ce4:	00031f82 	srl	v1,v1,0x1e
80000ce8:	10620002 	beq	v1,v0,80000cf4 <nand_boot+0x68>
80000cec:	24020200 	li	v0,512
80000cf0:	24020800 	li	v0,2048
80000cf4:	3c018000 	lui	at,0x8000
80000cf8:	ac221044 	sw	v0,4164(at)
80000cfc:	3c058000 	lui	a1,0x8000
80000d00:	8ca51044 	lw	a1,4164(a1)
80000d04:	24020020 	li	v0,32
80000d08:	24080040 	li	t0,64
80000d0c:	38a90800 	xori	t1,a1,0x800
80000d10:	0049400b 	movn	t0,v0,t1
80000d14:	70a85802 	mul	t3,a1,t0
80000d18:	28a20000 	slti	v0,a1,0
80000d1c:	24a6001f 	addiu	a2,a1,31
80000d20:	24a301ff 	addiu	v1,a1,511
80000d24:	00a2300a 	movz	a2,a1,v0
80000d28:	240a0005 	li	t2,5
80000d2c:	0062280b 	movn	a1,v1,v0
80000d30:	3c071000 	lui	a3,0x1000
80000d34:	0009500a 	movz	t2,zero,t1
80000d38:	24030003 	li	v1,3
80000d3c:	00063143 	sra	a2,a2,0x5
80000d40:	00052a43 	sra	a1,a1,0x9
80000d44:	24020008 	li	v0,8
80000d48:	3c048000 	lui	a0,0x8000
80000d4c:	24840fc8 	addiu	a0,a0,4040
80000d50:	3c01b001 	lui	at,0xb001
80000d54:	ac270348 	sw	a3,840(at)
80000d58:	3c018000 	lui	at,0x8000
80000d5c:	ac2a1080 	sw	t2,4224(at)
80000d60:	3c01b001 	lui	at,0xb001
80000d64:	ac270358 	sw	a3,856(at)
80000d68:	3c018000 	lui	at,0x8000
80000d6c:	ac281054 	sw	t0,4180(at)
80000d70:	3c01b001 	lui	at,0xb001
80000d74:	ac270364 	sw	a3,868(at)
80000d78:	3c018000 	lui	at,0x8000
80000d7c:	ac2b1058 	sw	t3,4184(at)
80000d80:	3c01b001 	lui	at,0xb001
80000d84:	ac270318 	sw	a3,792(at)
80000d88:	3c018000 	lui	at,0x8000
80000d8c:	ac231050 	sw	v1,4176(at)
80000d90:	3c018000 	lui	at,0x8000
80000d94:	ac221040 	sw	v0,4160(at)
80000d98:	3c018000 	lui	at,0x8000
80000d9c:	ac261048 	sw	a2,4168(at)
80000da0:	3c018000 	lui	at,0x8000
80000da4:	0c000141 	jal	80000504 <serial_puts>
80000da8:	ac25104c 	sw	a1,4172(at)
80000dac:	3c050020 	lui	a1,0x20
80000db0:	3c068010 	lui	a2,0x8010
80000db4:	0c00029c 	jal	80000a70 <nand_load>
80000db8:	3c040004 	lui	a0,0x4
80000dbc:	3c048000 	lui	a0,0x8000
80000dc0:	0c000141 	jal	80000504 <serial_puts>
80000dc4:	24840ff0 	addiu	a0,a0,4080
80000dc8:	2402ffff 	li	v0,-1
80000dcc:	3c03b000 	lui	v1,0xb000
80000dd0:	8c631010 	lw	v1,4112(v1)
80000dd4:	3c01b000 	lui	at,0xb000
80000dd8:	ac221008 	sw	v0,4104(at)
80000ddc:	3c018010 	lui	at,0x8010
80000de0:	0020f809 	jalr	at
80000de4:	00000000 	nop
80000de8:	8fbf0010 	lw	ra,16(sp)
80000dec:	03e00008 	jr	ra
80000df0:	27bd0018 	addiu	sp,sp,24

80000df4 <serial_puts_hex>:
80000df4:	27bdffd8 	addiu	sp,sp,-40
80000df8:	afbf0020 	sw	ra,32(sp)
80000dfc:	00003021 	move	a2,zero
80000e00:	27aa0010 	addiu	t2,sp,16
80000e04:	2409001c 	li	t1,28
80000e08:	01241006 	srlv	v0,a0,t1
80000e0c:	3042000f 	andi	v0,v0,0xf
80000e10:	01462821 	addu	a1,t2,a2
80000e14:	2c43000a 	sltiu	v1,v0,10
80000e18:	24480030 	addiu	t0,v0,48
80000e1c:	24470037 	addiu	a3,v0,55
80000e20:	10600010 	beqz	v1,80000e64 <serial_puts_hex+0x70>
80000e24:	a0a20000 	sb	v0,0(a1)
80000e28:	a0a80000 	sb	t0,0(a1)
80000e2c:	24c20001 	addiu	v0,a2,1
80000e30:	00021600 	sll	v0,v0,0x18
80000e34:	00023603 	sra	a2,v0,0x18
80000e38:	28c30008 	slti	v1,a2,8
80000e3c:	1460fff2 	bnez	v1,80000e08 <serial_puts_hex+0x14>
80000e40:	2529fffc 	addiu	t1,t1,-4
80000e44:	2402000a 	li	v0,10
80000e48:	27a40010 	addiu	a0,sp,16
80000e4c:	a3a20018 	sb	v0,24(sp)
80000e50:	0c000141 	jal	80000504 <serial_puts>
80000e54:	a3a00019 	sb	zero,25(sp)
80000e58:	8fbf0020 	lw	ra,32(sp)
80000e5c:	03e00008 	jr	ra
80000e60:	27bd0028 	addiu	sp,sp,40
80000e64:	0800038b 	j	80000e2c <serial_puts_hex+0x38>
80000e68:	a0a70000 	sb	a3,0(a1)
