
curt_image.elf:     file format elf32-tradlittlemips

Disassembly of section .text:

80100000 <output1>:
80100000:	27bdffe8 	addiu	sp,sp,-24
80100004:	afbf0010 	sw	ra,16(sp)
80100008:	0c040645 	jal	80101914 <init_os_timer>
8010000c:	00000000 	nop
80100010:	0c04084c 	jal	80102130 <sti>
80100014:	00000000 	nop
80100018:	3c048010 	lui	a0,0x8010
8010001c:	0c04037e 	jal	80100df8 <printf>
80100020:	24844370 	addiu	a0,a0,17264
80100024:	08040006 	j	80100018 <_ftext+0x18>
80100028:	00000000 	nop

8010002c <output2>:
8010002c:	27bdffe8 	addiu	sp,sp,-24
80100030:	afbf0010 	sw	ra,16(sp)
80100034:	3c048010 	lui	a0,0x8010
80100038:	0c04037e 	jal	80100df8 <printf>
8010003c:	24844374 	addiu	a0,a0,17268
80100040:	0804000d 	j	80100034 <output2+0x8>
80100044:	00000000 	nop

80100048 <main>:
80100048:	27bdffe0 	addiu	sp,sp,-32
8010004c:	afbf001c 	sw	ra,28(sp)
80100050:	0c04071b 	jal	80101c6c <exception_init>
80100054:	afb00018 	sw	s0,24(sp)
80100058:	0c040650 	jal	80101940 <init_interrupt_control>
8010005c:	24100001 	li	s0,1
80100060:	0c0406b0 	jal	80101ac0 <detect_clock>
80100064:	00000000 	nop
80100068:	0c04073c 	jal	80101cf0 <gpio_init>
8010006c:	00000000 	nop
80100070:	0c04091c 	jal	80102470 <SerialInit>
80100074:	00000000 	nop
80100078:	0c040bf9 	jal	80102fe4 <init_curt>
8010007c:	00000000 	nop
80100080:	3c048013 	lui	a0,0x8013
80100084:	2484d01c 	addiu	a0,a0,-12260
80100088:	0c040f10 	jal	80103c40 <sem_init>
8010008c:	24050001 	li	a1,1
80100090:	3c048010 	lui	a0,0x8010
80100094:	24844f54 	addiu	a0,a0,20308
80100098:	3c058011 	lui	a1,0x8011
8010009c:	24a5d018 	addiu	a1,a1,-12264
801000a0:	3c068010 	lui	a2,0x8010
801000a4:	24c601b8 	addiu	a2,a2,440
801000a8:	3c078010 	lui	a3,0x8010
801000ac:	24e74378 	addiu	a3,a3,17272
801000b0:	24020005 	li	v0,5
801000b4:	afa20010 	sw	v0,16(sp)
801000b8:	0c040d5c 	jal	80103570 <thread_create>
801000bc:	afa00014 	sw	zero,20(sp)
801000c0:	3c048010 	lui	a0,0x8010
801000c4:	24844fa4 	addiu	a0,a0,20388
801000c8:	3c058011 	lui	a1,0x8011
801000cc:	24a55014 	addiu	a1,a1,20500
801000d0:	3c068010 	lui	a2,0x8010
801000d4:	24c603b4 	addiu	a2,a2,948
801000d8:	3c078010 	lui	a3,0x8010
801000dc:	24e74388 	addiu	a3,a3,17288
801000e0:	afb00010 	sw	s0,16(sp)
801000e4:	3c018013 	lui	at,0x8013
801000e8:	ac22d008 	sw	v0,-12280(at)
801000ec:	0c040d5c 	jal	80103570 <thread_create>
801000f0:	afa00014 	sw	zero,20(sp)
801000f4:	3c048010 	lui	a0,0x8010
801000f8:	24844f7c 	addiu	a0,a0,20348
801000fc:	3c058012 	lui	a1,0x8012
80100100:	24a5d010 	addiu	a1,a1,-12272
80100104:	3c068010 	lui	a2,0x8010
80100108:	24c60334 	addiu	a2,a2,820
8010010c:	3c078010 	lui	a3,0x8010
80100110:	24e74394 	addiu	a3,a3,17300
80100114:	afb00010 	sw	s0,16(sp)
80100118:	3c018013 	lui	at,0x8013
8010011c:	ac22d010 	sw	v0,-12272(at)
80100120:	24100015 	li	s0,21
80100124:	0c040d5c 	jal	80103570 <thread_create>
80100128:	afa00014 	sw	zero,20(sp)
8010012c:	3c048010 	lui	a0,0x8010
80100130:	24844fcc 	addiu	a0,a0,20428
80100134:	3c058012 	lui	a1,0x8012
80100138:	24a5500c 	addiu	a1,a1,20492
8010013c:	3c068010 	lui	a2,0x8010
80100140:	24c60484 	addiu	a2,a2,1156
80100144:	3c078010 	lui	a3,0x8010
80100148:	24e743a8 	addiu	a3,a3,17320
8010014c:	3c018013 	lui	at,0x8013
80100150:	ac22d00c 	sw	v0,-12276(at)
80100154:	afb00010 	sw	s0,16(sp)
80100158:	0c040d5c 	jal	80103570 <thread_create>
8010015c:	afa00014 	sw	zero,20(sp)
80100160:	3c048010 	lui	a0,0x8010
80100164:	24844ff4 	addiu	a0,a0,20468
80100168:	3c058013 	lui	a1,0x8013
8010016c:	24a5d008 	addiu	a1,a1,-12280
80100170:	3c068010 	lui	a2,0x8010
80100174:	24c60484 	addiu	a2,a2,1156
80100178:	3c078010 	lui	a3,0x8010
8010017c:	24e743b8 	addiu	a3,a3,17336
80100180:	3c018013 	lui	at,0x8013
80100184:	ac22d014 	sw	v0,-12268(at)
80100188:	afb00010 	sw	s0,16(sp)
8010018c:	0c040d5c 	jal	80103570 <thread_create>
80100190:	afa00014 	sw	zero,20(sp)
80100194:	3c048010 	lui	a0,0x8010
80100198:	248443c8 	addiu	a0,a0,17352
8010019c:	3c018013 	lui	at,0x8013
801001a0:	0c04037e 	jal	80100df8 <printf>
801001a4:	ac22d018 	sw	v0,-12264(at)
801001a8:	0c040bb4 	jal	80102ed0 <start_curt>
801001ac:	00000000 	nop
801001b0:	0804006c 	j	801001b0 <main+0x168>
801001b4:	00000000 	nop

801001b8 <shell_thread_func>:
801001b8:	27bdff98 	addiu	sp,sp,-104
801001bc:	afbf0060 	sw	ra,96(sp)
801001c0:	0c040645 	jal	80101914 <init_os_timer>
801001c4:	00000000 	nop
801001c8:	0c04084c 	jal	80102130 <sti>
801001cc:	00000000 	nop
801001d0:	3c048013 	lui	a0,0x8013
801001d4:	0c040e0b 	jal	8010382c <thread_suspend>
801001d8:	8c84d010 	lw	a0,-12272(a0)
801001dc:	3c048013 	lui	a0,0x8013
801001e0:	0c040e0b 	jal	8010382c <thread_suspend>
801001e4:	8c84d00c 	lw	a0,-12276(a0)
801001e8:	3c048013 	lui	a0,0x8013
801001ec:	0c040e0b 	jal	8010382c <thread_suspend>
801001f0:	8c84d014 	lw	a0,-12268(a0)
801001f4:	27a40010 	addiu	a0,sp,16
801001f8:	00002821 	move	a1,zero
801001fc:	0c040158 	jal	80100560 <memset>
80100200:	24060050 	li	a2,80
80100204:	3c048010 	lui	a0,0x8010
80100208:	0c04037e 	jal	80100df8 <printf>
8010020c:	24844434 	addiu	a0,a0,17460
80100210:	0c0404b2 	jal	801012c8 <gets>
80100214:	27a40010 	addiu	a0,sp,16
80100218:	3c048010 	lui	a0,0x8010
8010021c:	0c04037e 	jal	80100df8 <printf>
80100220:	24844438 	addiu	a0,a0,17464
80100224:	3c058010 	lui	a1,0x8010
80100228:	24a5443c 	addiu	a1,a1,17468
8010022c:	0c040163 	jal	8010058c <strcmp>
80100230:	27a40010 	addiu	a0,sp,16
80100234:	1040fff3 	beqz	v0,80100204 <shell_thread_func+0x4c>
80100238:	00000000 	nop
8010023c:	3c058010 	lui	a1,0x8010
80100240:	24a54440 	addiu	a1,a1,17472
80100244:	0c040163 	jal	8010058c <strcmp>
80100248:	27a40010 	addiu	a0,sp,16
8010024c:	10400036 	beqz	v0,80100328 <shell_thread_func+0x170>
80100250:	00000000 	nop
80100254:	3c058010 	lui	a1,0x8010
80100258:	24a54448 	addiu	a1,a1,17480
8010025c:	0c040163 	jal	8010058c <strcmp>
80100260:	27a40010 	addiu	a0,sp,16
80100264:	1040002d 	beqz	v0,8010031c <shell_thread_func+0x164>
80100268:	00000000 	nop
8010026c:	3c058010 	lui	a1,0x8010
80100270:	24a5444c 	addiu	a1,a1,17484
80100274:	0c040163 	jal	8010058c <strcmp>
80100278:	27a40010 	addiu	a0,sp,16
8010027c:	10400023 	beqz	v0,8010030c <shell_thread_func+0x154>
80100280:	00000000 	nop
80100284:	3c058010 	lui	a1,0x8010
80100288:	24a54454 	addiu	a1,a1,17492
8010028c:	0c040163 	jal	8010058c <strcmp>
80100290:	27a40010 	addiu	a0,sp,16
80100294:	3c048010 	lui	a0,0x8010
80100298:	1040000d 	beqz	v0,801002d0 <shell_thread_func+0x118>
8010029c:	2484445c 	addiu	a0,a0,17500
801002a0:	3c058010 	lui	a1,0x8010
801002a4:	24a544a4 	addiu	a1,a1,17572
801002a8:	0c040163 	jal	8010058c <strcmp>
801002ac:	27a40010 	addiu	a0,sp,16
801002b0:	1040000b 	beqz	v0,801002e0 <shell_thread_func+0x128>
801002b4:	00000000 	nop
801002b8:	3c048010 	lui	a0,0x8010
801002bc:	248444ac 	addiu	a0,a0,17580
801002c0:	0c04037e 	jal	80100df8 <printf>
801002c4:	27a50010 	addiu	a1,sp,16
801002c8:	3c048010 	lui	a0,0x8010
801002cc:	248444cc 	addiu	a0,a0,17612
801002d0:	0c04037e 	jal	80100df8 <printf>
801002d4:	00000000 	nop
801002d8:	08040081 	j	80100204 <shell_thread_func+0x4c>
801002dc:	00000000 	nop
801002e0:	3c048013 	lui	a0,0x8013
801002e4:	0c040e4a 	jal	80103928 <thread_resume>
801002e8:	8c84d014 	lw	a0,-12268(a0)
801002ec:	3c048013 	lui	a0,0x8013
801002f0:	8c84d018 	lw	a0,-12264(a0)
801002f4:	0c040e4a 	jal	80103928 <thread_resume>
801002f8:	00000000 	nop
801002fc:	0c040de9 	jal	801037a4 <thread_delay>
80100300:	24040001 	li	a0,1
80100304:	08040081 	j	80100204 <shell_thread_func+0x4c>
80100308:	00000000 	nop
8010030c:	0c040118 	jal	80100460 <print_help_msg>
80100310:	00000000 	nop
80100314:	08040081 	j	80100204 <shell_thread_func+0x4c>
80100318:	00000000 	nop
8010031c:	3c048013 	lui	a0,0x8013
80100320:	080400bd 	j	801002f4 <shell_thread_func+0x13c>
80100324:	8c84d010 	lw	a0,-12272(a0)
80100328:	3c048013 	lui	a0,0x8013
8010032c:	080400bd 	j	801002f4 <shell_thread_func+0x13c>
80100330:	8c84d00c 	lw	a0,-12276(a0)

80100334 <print_statistics>:
80100334:	27bdffe8 	addiu	sp,sp,-24
80100338:	afbf0010 	sw	ra,16(sp)
8010033c:	3c048010 	lui	a0,0x8010
80100340:	0c04037e 	jal	80100df8 <printf>
80100344:	248444d8 	addiu	a0,a0,17624
80100348:	3c058010 	lui	a1,0x8010
8010034c:	8ca54f30 	lw	a1,20272(a1)
80100350:	3c048010 	lui	a0,0x8010
80100354:	0c04037e 	jal	80100df8 <printf>
80100358:	2484450c 	addiu	a0,a0,17676
8010035c:	3c058010 	lui	a1,0x8010
80100360:	8ca54f40 	lw	a1,20288(a1)
80100364:	3c048010 	lui	a0,0x8010
80100368:	0c04037e 	jal	80100df8 <printf>
8010036c:	24844528 	addiu	a0,a0,17704
80100370:	3c058010 	lui	a1,0x8010
80100374:	8ca54f3c 	lw	a1,20284(a1)
80100378:	3c048010 	lui	a0,0x8010
8010037c:	0c04037e 	jal	80100df8 <printf>
80100380:	2484454c 	addiu	a0,a0,17740
80100384:	3c048010 	lui	a0,0x8010
80100388:	0c04037e 	jal	80100df8 <printf>
8010038c:	24844564 	addiu	a0,a0,17764
80100390:	3c048010 	lui	a0,0x8010
80100394:	0c04037e 	jal	80100df8 <printf>
80100398:	24844598 	addiu	a0,a0,17816
8010039c:	3c038010 	lui	v1,0x8010
801003a0:	8c634f34 	lw	v1,20276(v1)
801003a4:	0c040e0b 	jal	8010382c <thread_suspend>
801003a8:	8c64000c 	lw	a0,12(v1)
801003ac:	080400cf 	j	8010033c <print_statistics+0x8>
801003b0:	00000000 	nop

801003b4 <print_thread_info>:
801003b4:	27bdffe0 	addiu	sp,sp,-32
801003b8:	afbf0018 	sw	ra,24(sp)
801003bc:	afb10014 	sw	s1,20(sp)
801003c0:	afb00010 	sw	s0,16(sp)
801003c4:	3c048010 	lui	a0,0x8010
801003c8:	248445fc 	addiu	a0,a0,17916
801003cc:	3c058010 	lui	a1,0x8010
801003d0:	24a54618 	addiu	a1,a1,17944
801003d4:	3c068010 	lui	a2,0x8010
801003d8:	24c6461c 	addiu	a2,a2,17948
801003dc:	3c078010 	lui	a3,0x8010
801003e0:	24e74624 	addiu	a3,a3,17956
801003e4:	0c04037e 	jal	80100df8 <printf>
801003e8:	24100063 	li	s0,99
801003ec:	3c118014 	lui	s1,0x8014
801003f0:	2631e8a0 	addiu	s1,s1,-5984
801003f4:	8e230000 	lw	v1,0(s1)
801003f8:	2610ffff 	addiu	s0,s0,-1
801003fc:	3c048010 	lui	a0,0x8010
80100400:	2484462c 	addiu	a0,a0,17964
80100404:	1460000c 	bnez	v1,80100438 <print_thread_info+0x84>
80100408:	26310004 	addiu	s1,s1,4
8010040c:	0601fff9 	bgez	s0,801003f4 <print_thread_info+0x40>
80100410:	00000000 	nop
80100414:	3c048010 	lui	a0,0x8010
80100418:	0c04037e 	jal	80100df8 <printf>
8010041c:	24844640 	addiu	a0,a0,17984
80100420:	3c038010 	lui	v1,0x8010
80100424:	8c634f34 	lw	v1,20276(v1)
80100428:	0c040e0b 	jal	8010382c <thread_suspend>
8010042c:	8c64000c 	lw	a0,12(v1)
80100430:	080400f1 	j	801003c4 <print_thread_info+0x10>
80100434:	00000000 	nop
80100438:	8c620014 	lw	v0,20(v1)
8010043c:	8c670010 	lw	a3,16(v1)
80100440:	00021080 	sll	v0,v0,0x2
80100444:	3c068010 	lui	a2,0x8010
80100448:	00c23021 	addu	a2,a2,v0
8010044c:	8cc64d90 	lw	a2,19856(a2)
80100450:	0c04037e 	jal	80100df8 <printf>
80100454:	8c65000c 	lw	a1,12(v1)
80100458:	08040103 	j	8010040c <print_thread_info+0x58>
8010045c:	00000000 	nop

80100460 <print_help_msg>:
80100460:	27bdffe8 	addiu	sp,sp,-24
80100464:	3c048010 	lui	a0,0x8010
80100468:	2484465c 	addiu	a0,a0,18012
8010046c:	afbf0010 	sw	ra,16(sp)
80100470:	0c04037e 	jal	80100df8 <printf>
80100474:	00000000 	nop
80100478:	8fbf0010 	lw	ra,16(sp)
8010047c:	03e00008 	jr	ra
80100480:	27bd0018 	addiu	sp,sp,24

80100484 <hello_world>:
80100484:	27bdffe0 	addiu	sp,sp,-32
80100488:	afb10014 	sw	s1,20(sp)
8010048c:	afbf0018 	sw	ra,24(sp)
80100490:	afb00010 	sw	s0,16(sp)
80100494:	00008821 	move	s1,zero
80100498:	3c048013 	lui	a0,0x8013
8010049c:	2484d01c 	addiu	a0,a0,-12260
801004a0:	0c040f1d 	jal	80103c74 <sem_pend>
801004a4:	26310001 	addiu	s1,s1,1
801004a8:	3c028010 	lui	v0,0x8010
801004ac:	8c424f50 	lw	v0,20304(v0)
801004b0:	3c048013 	lui	a0,0x8013
801004b4:	2484d01c 	addiu	a0,a0,-12260
801004b8:	24420001 	addiu	v0,v0,1
801004bc:	3c018010 	lui	at,0x8010
801004c0:	0c040f6d 	jal	80103db4 <sem_post>
801004c4:	ac224f50 	sw	v0,20304(at)
801004c8:	0c040de9 	jal	801037a4 <thread_delay>
801004cc:	24040001 	li	a0,1
801004d0:	3c048013 	lui	a0,0x8013
801004d4:	0c040f1d 	jal	80103c74 <sem_pend>
801004d8:	2484d01c 	addiu	a0,a0,-12260
801004dc:	3c108010 	lui	s0,0x8010
801004e0:	8e104f50 	lw	s0,20304(s0)
801004e4:	3c048013 	lui	a0,0x8013
801004e8:	2484d01c 	addiu	a0,a0,-12260
801004ec:	26100001 	addiu	s0,s0,1
801004f0:	3c018010 	lui	at,0x8010
801004f4:	0c040f6d 	jal	80103db4 <sem_post>
801004f8:	ac304f50 	sw	s0,20304(at)
801004fc:	02002821 	move	a1,s0
80100500:	3c048010 	lui	a0,0x8010
80100504:	24844738 	addiu	a0,a0,18232
80100508:	0c04037e 	jal	80100df8 <printf>
8010050c:	02203021 	move	a2,s1
80100510:	3c038010 	lui	v1,0x8010
80100514:	8c634f34 	lw	v1,20276(v1)
80100518:	0c040e0b 	jal	8010382c <thread_suspend>
8010051c:	8c64000c 	lw	a0,12(v1)
80100520:	08040126 	j	80100498 <hello_world+0x14>
80100524:	00000000 	nop
	...

80100530 <memcpy>:
80100530:	00863021 	addu	a2,a0,a2
80100534:	0086102b 	sltu	v0,a0,a2
80100538:	10400007 	beqz	v0,80100558 <memcpy+0x28>
8010053c:	00801821 	move	v1,a0
80100540:	90a20000 	lbu	v0,0(a1)
80100544:	a0620000 	sb	v0,0(v1)
80100548:	24630001 	addiu	v1,v1,1
8010054c:	0066102b 	sltu	v0,v1,a2
80100550:	1440fffb 	bnez	v0,80100540 <memcpy+0x10>
80100554:	24a50001 	addiu	a1,a1,1
80100558:	03e00008 	jr	ra
8010055c:	00801021 	move	v0,a0

80100560 <memset>:
80100560:	00863021 	addu	a2,a0,a2
80100564:	0086102b 	sltu	v0,a0,a2
80100568:	10400006 	beqz	v0,80100584 <memset+0x24>
8010056c:	00801821 	move	v1,a0
80100570:	a0650000 	sb	a1,0(v1)
80100574:	24630001 	addiu	v1,v1,1
80100578:	0066102b 	sltu	v0,v1,a2
8010057c:	1440fffc 	bnez	v0,80100570 <memset+0x10>
80100580:	00000000 	nop
80100584:	03e00008 	jr	ra
80100588:	00801021 	move	v0,a0

8010058c <strcmp>:
8010058c:	80860000 	lb	a2,0(a0)
80100590:	10c00012 	beqz	a2,801005dc <strcmp+0x50>
80100594:	90870000 	lbu	a3,0(a0)
80100598:	80a20000 	lb	v0,0(a1)
8010059c:	10c20005 	beq	a2,v0,801005b4 <strcmp+0x28>
801005a0:	90a30000 	lbu	v1,0(a1)
801005a4:	30e200ff 	andi	v0,a3,0xff
801005a8:	306300ff 	andi	v1,v1,0xff
801005ac:	03e00008 	jr	ra
801005b0:	00431023 	subu	v0,v0,v1
801005b4:	24840001 	addiu	a0,a0,1
801005b8:	80860000 	lb	a2,0(a0)
801005bc:	24a50001 	addiu	a1,a1,1
801005c0:	10c00006 	beqz	a2,801005dc <strcmp+0x50>
801005c4:	90870000 	lbu	a3,0(a0)
801005c8:	80a20000 	lb	v0,0(a1)
801005cc:	10c2fff9 	beq	a2,v0,801005b4 <strcmp+0x28>
801005d0:	90a30000 	lbu	v1,0(a1)
801005d4:	0804016a 	j	801005a8 <strcmp+0x1c>
801005d8:	30e200ff 	andi	v0,a3,0xff
801005dc:	08040169 	j	801005a4 <strcmp+0x18>
801005e0:	90a30000 	lbu	v1,0(a1)

801005e4 <DecToLong>:
801005e4:	10800004 	beqz	a0,801005f8 <DecToLong+0x14>
801005e8:	00001821 	move	v1,zero
801005ec:	80820000 	lb	v0,0(a0)
801005f0:	14400003 	bnez	v0,80100600 <DecToLong+0x1c>
801005f4:	00000000 	nop
801005f8:	03e00008 	jr	ra
801005fc:	00601021 	move	v0,v1
80100600:	aca00000 	sw	zero,0(a1)
80100604:	80820000 	lb	v0,0(a0)
80100608:	10400013 	beqz	v0,80100658 <DecToLong+0x74>
8010060c:	90830000 	lbu	v1,0(a0)
80100610:	00031600 	sll	v0,v1,0x18
80100614:	00021603 	sra	v0,v0,0x18
80100618:	2446ffd0 	addiu	a2,v0,-48
8010061c:	2462ffd0 	addiu	v0,v1,-48
80100620:	304200ff 	andi	v0,v0,0xff
80100624:	2c42000a 	sltiu	v0,v0,10
80100628:	24840001 	addiu	a0,a0,1
8010062c:	1040fff2 	beqz	v0,801005f8 <DecToLong+0x14>
80100630:	00001821 	move	v1,zero
80100634:	8ca20000 	lw	v0,0(a1)
80100638:	00021880 	sll	v1,v0,0x2
8010063c:	00621821 	addu	v1,v1,v0
80100640:	00031840 	sll	v1,v1,0x1
80100644:	00661821 	addu	v1,v1,a2
80100648:	aca30000 	sw	v1,0(a1)
8010064c:	80820000 	lb	v0,0(a0)
80100650:	1440ffef 	bnez	v0,80100610 <DecToLong+0x2c>
80100654:	90830000 	lbu	v1,0(a0)
80100658:	0804017e 	j	801005f8 <DecToLong+0x14>
8010065c:	24030001 	li	v1,1

80100660 <_doprntx>:
80100660:	27bdff80 	addiu	sp,sp,-128
80100664:	3c028010 	lui	v0,0x8010
80100668:	244247a0 	addiu	v0,v0,18336
8010066c:	afb70074 	sw	s7,116(sp)
80100670:	afb60070 	sw	s6,112(sp)
80100674:	afb5006c 	sw	s5,108(sp)
80100678:	afb20060 	sw	s2,96(sp)
8010067c:	afbf007c 	sw	ra,124(sp)
80100680:	afbe0078 	sw	s8,120(sp)
80100684:	afb40068 	sw	s4,104(sp)
80100688:	afb30064 	sw	s3,100(sp)
8010068c:	afb1005c 	sw	s1,92(sp)
80100690:	afb00058 	sw	s0,88(sp)
80100694:	afa50084 	sw	a1,132(sp)
80100698:	00c0b021 	move	s6,a2
8010069c:	00e0a821 	move	s5,a3
801006a0:	00809021 	move	s2,a0
801006a4:	afa20040 	sw	v0,64(sp)
801006a8:	0000b821 	move	s7,zero
801006ac:	92440000 	lbu	a0,0(s2)
801006b0:	10800025 	beqz	a0,80100748 <_doprntx+0xe8>
801006b4:	24020025 	li	v0,37
801006b8:	1082000d 	beq	a0,v0,801006f0 <_doprntx+0x90>
801006bc:	00000000 	nop
801006c0:	2411000a 	li	s1,10
801006c4:	24100025 	li	s0,37
801006c8:	109101b6 	beq	a0,s1,80100da4 <_doprntx+0x744>
801006cc:	00000000 	nop
801006d0:	02c0f809 	jalr	s6
801006d4:	02a02821 	move	a1,s5
801006d8:	26520001 	addiu	s2,s2,1
801006dc:	92440000 	lbu	a0,0(s2)
801006e0:	10800019 	beqz	a0,80100748 <_doprntx+0xe8>
801006e4:	26f70001 	addiu	s7,s7,1
801006e8:	1490fff7 	bne	a0,s0,801006c8 <_doprntx+0x68>
801006ec:	00000000 	nop
801006f0:	10800015 	beqz	a0,80100748 <_doprntx+0xe8>
801006f4:	2413ffff 	li	s3,-1
801006f8:	afa00034 	sw	zero,52(sp)
801006fc:	afa00030 	sw	zero,48(sp)
80100700:	afa0003c 	sw	zero,60(sp)
80100704:	00003821 	move	a3,zero
80100708:	26520001 	addiu	s2,s2,1
8010070c:	92440000 	lbu	a0,0(s2)
80100710:	308300ff 	andi	v1,a0,0xff
80100714:	2c620079 	sltiu	v0,v1,121
80100718:	1040019c 	beqz	v0,80100d8c <_doprntx+0x72c>
8010071c:	00803021 	move	a2,a0
80100720:	00031080 	sll	v0,v1,0x2
80100724:	3c038010 	lui	v1,0x8010
80100728:	00621821 	addu	v1,v1,v0
8010072c:	8c6347d0 	lw	v1,18384(v1)
80100730:	00600008 	jr	v1
80100734:	00000000 	nop
80100738:	14e0fff3 	bnez	a3,80100708 <_doprntx+0xa8>
8010073c:	00000000 	nop
80100740:	080401c2 	j	80100708 <_doprntx+0xa8>
80100744:	24070020 	li	a3,32
80100748:	02e01021 	move	v0,s7
8010074c:	8fbf007c 	lw	ra,124(sp)
80100750:	8fbe0078 	lw	s8,120(sp)
80100754:	8fb70074 	lw	s7,116(sp)
80100758:	8fb60070 	lw	s6,112(sp)
8010075c:	8fb5006c 	lw	s5,108(sp)
80100760:	8fb40068 	lw	s4,104(sp)
80100764:	8fb30064 	lw	s3,100(sp)
80100768:	8fb20060 	lw	s2,96(sp)
8010076c:	8fb1005c 	lw	s1,92(sp)
80100770:	8fb00058 	lw	s0,88(sp)
80100774:	03e00008 	jr	ra
80100778:	27bd0080 	addiu	sp,sp,128
8010077c:	8fa30034 	lw	v1,52(sp)
80100780:	34630008 	ori	v1,v1,0x8
80100784:	080401c2 	j	80100708 <_doprntx+0xa8>
80100788:	afa30034 	sw	v1,52(sp)
8010078c:	8fa40084 	lw	a0,132(sp)
80100790:	24840004 	addiu	a0,a0,4
80100794:	8c82fffc 	lw	v0,-4(a0)
80100798:	afa40084 	sw	a0,132(sp)
8010079c:	0441ffda 	bgez	v0,80100708 <_doprntx+0xa8>
801007a0:	afa2003c 	sw	v0,60(sp)
801007a4:	00021023 	negu	v0,v0
801007a8:	afa2003c 	sw	v0,60(sp)
801007ac:	8fa30034 	lw	v1,52(sp)
801007b0:	080401e1 	j	80100784 <_doprntx+0x124>
801007b4:	34630010 	ori	v1,v1,0x10
801007b8:	080401c2 	j	80100708 <_doprntx+0xa8>
801007bc:	2407002b 	li	a3,43
801007c0:	26520001 	addiu	s2,s2,1
801007c4:	92460000 	lbu	a2,0(s2)
801007c8:	2402002a 	li	v0,42
801007cc:	30c300ff 	andi	v1,a2,0xff
801007d0:	1062001f 	beq	v1,v0,80100850 <_doprntx+0x1f0>
801007d4:	00061600 	sll	v0,a2,0x18
801007d8:	04400017 	bltz	v0,80100838 <_doprntx+0x1d8>
801007dc:	00008021 	move	s0,zero
801007e0:	3c028010 	lui	v0,0x8010
801007e4:	00431021 	addu	v0,v0,v1
801007e8:	90424db0 	lbu	v0,19888(v0)
801007ec:	30420004 	andi	v0,v0,0x4
801007f0:	10400011 	beqz	v0,80100838 <_doprntx+0x1d8>
801007f4:	00101080 	sll	v0,s0,0x2
801007f8:	26520001 	addiu	s2,s2,1
801007fc:	00501021 	addu	v0,v0,s0
80100800:	82440000 	lb	a0,0(s2)
80100804:	30c300ff 	andi	v1,a2,0xff
80100808:	00021040 	sll	v0,v0,0x1
8010080c:	00431021 	addu	v0,v0,v1
80100810:	2450ffd0 	addiu	s0,v0,-48
80100814:	04800008 	bltz	a0,80100838 <_doprntx+0x1d8>
80100818:	92460000 	lbu	a2,0(s2)
8010081c:	30c300ff 	andi	v1,a2,0xff
80100820:	3c028010 	lui	v0,0x8010
80100824:	00431021 	addu	v0,v0,v1
80100828:	90424db0 	lbu	v0,19888(v0)
8010082c:	30420004 	andi	v0,v0,0x4
80100830:	1440fff1 	bnez	v0,801007f8 <_doprntx+0x198>
80100834:	00101080 	sll	v0,s0,0x2
80100838:	2652ffff 	addiu	s2,s2,-1
8010083c:	2a02ffff 	slti	v0,s0,-1
80100840:	1040ffb1 	beqz	v0,80100708 <_doprntx+0xa8>
80100844:	02009821 	move	s3,s0
80100848:	080401c2 	j	80100708 <_doprntx+0xa8>
8010084c:	2413ffff 	li	s3,-1
80100850:	8fa40084 	lw	a0,132(sp)
80100854:	24840004 	addiu	a0,a0,4
80100858:	8c90fffc 	lw	s0,-4(a0)
8010085c:	0804020f 	j	8010083c <_doprntx+0x1dc>
80100860:	afa40084 	sw	a0,132(sp)
80100864:	8fa20034 	lw	v0,52(sp)
80100868:	34420020 	ori	v0,v0,0x20
8010086c:	080401c2 	j	80100708 <_doprntx+0xa8>
80100870:	afa20034 	sw	v0,52(sp)
80100874:	00008021 	move	s0,zero
80100878:	26520001 	addiu	s2,s2,1
8010087c:	00101080 	sll	v0,s0,0x2
80100880:	92450000 	lbu	a1,0(s2)
80100884:	00501021 	addu	v0,v0,s0
80100888:	30c300ff 	andi	v1,a2,0xff
8010088c:	00021040 	sll	v0,v0,0x1
80100890:	00431021 	addu	v0,v0,v1
80100894:	00052600 	sll	a0,a1,0x18
80100898:	2450ffd0 	addiu	s0,v0,-48
8010089c:	04800008 	bltz	a0,801008c0 <_doprntx+0x260>
801008a0:	00a03021 	move	a2,a1
801008a4:	30a300ff 	andi	v1,a1,0xff
801008a8:	3c028010 	lui	v0,0x8010
801008ac:	00431021 	addu	v0,v0,v1
801008b0:	90424db0 	lbu	v0,19888(v0)
801008b4:	30420004 	andi	v0,v0,0x4
801008b8:	1440ffef 	bnez	v0,80100878 <_doprntx+0x218>
801008bc:	00000000 	nop
801008c0:	2652ffff 	addiu	s2,s2,-1
801008c4:	080401c2 	j	80100708 <_doprntx+0xa8>
801008c8:	afb0003c 	sw	s0,60(sp)
801008cc:	8fa20034 	lw	v0,52(sp)
801008d0:	34420001 	ori	v0,v0,0x1
801008d4:	afa20034 	sw	v0,52(sp)
801008d8:	8fa30034 	lw	v1,52(sp)
801008dc:	30620004 	andi	v0,v1,0x4
801008e0:	104000a2 	beqz	v0,80100b6c <_doprntx+0x50c>
801008e4:	8fa20084 	lw	v0,132(sp)
801008e8:	8fa40084 	lw	a0,132(sp)
801008ec:	24840004 	addiu	a0,a0,4
801008f0:	afa40084 	sw	a0,132(sp)
801008f4:	8484fffc 	lh	a0,-4(a0)
801008f8:	04800099 	bltz	a0,80100b60 <_doprntx+0x500>
801008fc:	00000000 	nop
80100900:	2405000a 	li	a1,10
80100904:	06600005 	bltz	s3,8010091c <_doprntx+0x2bc>
80100908:	afb30030 	sw	s3,48(sp)
8010090c:	8fa30034 	lw	v1,52(sp)
80100910:	2402ffdf 	li	v0,-33
80100914:	00621824 	and	v1,v1,v0
80100918:	afa30034 	sw	v1,52(sp)
8010091c:	14800004 	bnez	a0,80100930 <_doprntx+0x2d0>
80100920:	27b10030 	addiu	s1,sp,48
80100924:	8fa20030 	lw	v0,48(sp)
80100928:	10400018 	beqz	v0,8010098c <_doprntx+0x32c>
8010092c:	03b11023 	subu	v0,sp,s1
80100930:	0085001b 	divu	zero,a0,a1
80100934:	14a00002 	bnez	a1,80100940 <_doprntx+0x2e0>
80100938:	00000000 	nop
8010093c:	000001cd 	break	0x7
80100940:	8fa40040 	lw	a0,64(sp)
80100944:	2631ffff 	addiu	s1,s1,-1
80100948:	00001010 	mfhi	v0
8010094c:	00821021 	addu	v0,a0,v0
80100950:	90460000 	lbu	a2,0(v0)
80100954:	00001812 	mflo	v1
80100958:	a2260000 	sb	a2,0(s1)
8010095c:	00002012 	mflo	a0
80100960:	1460fff3 	bnez	v1,80100930 <_doprntx+0x2d0>
80100964:	8fa30034 	lw	v1,52(sp)
80100968:	3c048010 	lui	a0,0x8010
8010096c:	248447a0 	addiu	a0,a0,18336
80100970:	30620008 	andi	v0,v1,0x8
80100974:	10400004 	beqz	v0,80100988 <_doprntx+0x328>
80100978:	afa40040 	sw	a0,64(sp)
8010097c:	24020008 	li	v0,8
80100980:	10a20070 	beq	a1,v0,80100b44 <_doprntx+0x4e4>
80100984:	00061600 	sll	v0,a2,0x18
80100988:	03b11023 	subu	v0,sp,s1
8010098c:	24420030 	addiu	v0,v0,48
80100990:	afa20038 	sw	v0,56(sp)
80100994:	8fa30038 	lw	v1,56(sp)
80100998:	8fa40034 	lw	a0,52(sp)
8010099c:	24620001 	addiu	v0,v1,1
801009a0:	0060a021 	move	s4,v1
801009a4:	0047a00b 	movn	s4,v0,a3
801009a8:	26830002 	addiu	v1,s4,2
801009ac:	309e0040 	andi	s8,a0,0x40
801009b0:	02809821 	move	s3,s4
801009b4:	8fa20030 	lw	v0,48(sp)
801009b8:	007e980b 	movn	s3,v1,s8
801009bc:	30830030 	andi	v1,a0,0x30
801009c0:	8fa40030 	lw	a0,48(sp)
801009c4:	0262102a 	slt	v0,s3,v0
801009c8:	afa20044 	sw	v0,68(sp)
801009cc:	0260a021 	move	s4,s3
801009d0:	0082980b 	movn	s3,a0,v0
801009d4:	8fa2003c 	lw	v0,60(sp)
801009d8:	afa30048 	sw	v1,72(sp)
801009dc:	0262102a 	slt	v0,s3,v0
801009e0:	14600008 	bnez	v1,80100a04 <_doprntx+0x3a4>
801009e4:	afa2004c 	sw	v0,76(sp)
801009e8:	8fa4003c 	lw	a0,60(sp)
801009ec:	2a630000 	slti	v1,s3,0
801009f0:	10800004 	beqz	a0,80100a04 <_doprntx+0x3a4>
801009f4:	afa3004c 	sw	v1,76(sp)
801009f8:	afa2004c 	sw	v0,76(sp)
801009fc:	14400046 	bnez	v0,80100b18 <_doprntx+0x4b8>
80100a00:	02608021 	move	s0,s3
80100a04:	14e00040 	bnez	a3,80100b08 <_doprntx+0x4a8>
80100a08:	00e02021 	move	a0,a3
80100a0c:	17c00037 	bnez	s8,80100aec <_doprntx+0x48c>
80100a10:	24040030 	li	a0,48
80100a14:	8fa40048 	lw	a0,72(sp)
80100a18:	24020020 	li	v0,32
80100a1c:	10820028 	beq	a0,v0,80100ac0 <_doprntx+0x460>
80100a20:	8fa2004c 	lw	v0,76(sp)
80100a24:	8fa40044 	lw	a0,68(sp)
80100a28:	10800008 	beqz	a0,80100a4c <_doprntx+0x3ec>
80100a2c:	8fa20030 	lw	v0,48(sp)
80100a30:	00548023 	subu	s0,v0,s4
80100a34:	2610ffff 	addiu	s0,s0,-1
80100a38:	24040030 	li	a0,48
80100a3c:	02c0f809 	jalr	s6
80100a40:	02a02821 	move	a1,s5
80100a44:	1600fffc 	bnez	s0,80100a38 <_doprntx+0x3d8>
80100a48:	2610ffff 	addiu	s0,s0,-1
80100a4c:	8fa30038 	lw	v1,56(sp)
80100a50:	2470ffff 	addiu	s0,v1,-1
80100a54:	06000008 	bltz	s0,80100a78 <_doprntx+0x418>
80100a58:	8fa40034 	lw	a0,52(sp)
80100a5c:	82240000 	lb	a0,0(s1)
80100a60:	02a02821 	move	a1,s5
80100a64:	02c0f809 	jalr	s6
80100a68:	2610ffff 	addiu	s0,s0,-1
80100a6c:	0601fffb 	bgez	s0,80100a5c <_doprntx+0x3fc>
80100a70:	26310001 	addiu	s1,s1,1
80100a74:	8fa40034 	lw	a0,52(sp)
80100a78:	30820010 	andi	v0,a0,0x10
80100a7c:	1040000b 	beqz	v0,80100aac <_doprntx+0x44c>
80100a80:	8fa4003c 	lw	a0,60(sp)
80100a84:	8fa2004c 	lw	v0,76(sp)
80100a88:	10400009 	beqz	v0,80100ab0 <_doprntx+0x450>
80100a8c:	8fa3003c 	lw	v1,60(sp)
80100a90:	00738023 	subu	s0,v1,s3
80100a94:	2610ffff 	addiu	s0,s0,-1
80100a98:	24040020 	li	a0,32
80100a9c:	02c0f809 	jalr	s6
80100aa0:	02a02821 	move	a1,s5
80100aa4:	1600fffb 	bnez	s0,80100a94 <_doprntx+0x434>
80100aa8:	8fa4003c 	lw	a0,60(sp)
80100aac:	8fa2004c 	lw	v0,76(sp)
80100ab0:	0262200a 	movz	a0,s3,v0
80100ab4:	02e4b821 	addu	s7,s7,a0
80100ab8:	080401ab 	j	801006ac <_doprntx+0x4c>
80100abc:	26520001 	addiu	s2,s2,1
80100ac0:	1040ffd8 	beqz	v0,80100a24 <_doprntx+0x3c4>
80100ac4:	8fa3003c 	lw	v1,60(sp)
80100ac8:	00738023 	subu	s0,v1,s3
80100acc:	2610ffff 	addiu	s0,s0,-1
80100ad0:	24040030 	li	a0,48
80100ad4:	02c0f809 	jalr	s6
80100ad8:	02a02821 	move	a1,s5
80100adc:	1600fffc 	bnez	s0,80100ad0 <_doprntx+0x470>
80100ae0:	2610ffff 	addiu	s0,s0,-1
80100ae4:	0804028a 	j	80100a28 <_doprntx+0x3c8>
80100ae8:	8fa40044 	lw	a0,68(sp)
80100aec:	02c0f809 	jalr	s6
80100af0:	02a02821 	move	a1,s5
80100af4:	82440000 	lb	a0,0(s2)
80100af8:	02c0f809 	jalr	s6
80100afc:	02a02821 	move	a1,s5
80100b00:	08040286 	j	80100a18 <_doprntx+0x3b8>
80100b04:	8fa40048 	lw	a0,72(sp)
80100b08:	02c0f809 	jalr	s6
80100b0c:	02a02821 	move	a1,s5
80100b10:	08040283 	j	80100a0c <_doprntx+0x3ac>
80100b14:	00000000 	nop
80100b18:	afa70050 	sw	a3,80(sp)
80100b1c:	24040020 	li	a0,32
80100b20:	02c0f809 	jalr	s6
80100b24:	02a02821 	move	a1,s5
80100b28:	8fa3003c 	lw	v1,60(sp)
80100b2c:	26100001 	addiu	s0,s0,1
80100b30:	0203102a 	slt	v0,s0,v1
80100b34:	1440fff8 	bnez	v0,80100b18 <_doprntx+0x4b8>
80100b38:	8fa70050 	lw	a3,80(sp)
80100b3c:	08040281 	j	80100a04 <_doprntx+0x3a4>
80100b40:	00000000 	nop
80100b44:	00021603 	sra	v0,v0,0x18
80100b48:	24030030 	li	v1,48
80100b4c:	1043ff8f 	beq	v0,v1,8010098c <_doprntx+0x32c>
80100b50:	03b11023 	subu	v0,sp,s1
80100b54:	2631ffff 	addiu	s1,s1,-1
80100b58:	08040262 	j	80100988 <_doprntx+0x328>
80100b5c:	a2230000 	sb	v1,0(s1)
80100b60:	00042023 	negu	a0,a0
80100b64:	08040240 	j	80100900 <_doprntx+0x2a0>
80100b68:	2407002d 	li	a3,45
80100b6c:	24420004 	addiu	v0,v0,4
80100b70:	8c44fffc 	lw	a0,-4(v0)
80100b74:	0804023e 	j	801008f8 <_doprntx+0x298>
80100b78:	afa20084 	sw	v0,132(sp)
80100b7c:	8fa30034 	lw	v1,52(sp)
80100b80:	080401e1 	j	80100784 <_doprntx+0x124>
80100b84:	34630002 	ori	v1,v1,0x2
80100b88:	8fa30034 	lw	v1,52(sp)
80100b8c:	34630001 	ori	v1,v1,0x1
80100b90:	afa30034 	sw	v1,52(sp)
80100b94:	8fa40034 	lw	a0,52(sp)
80100b98:	30820004 	andi	v0,a0,0x4
80100b9c:	10400008 	beqz	v0,80100bc0 <_doprntx+0x560>
80100ba0:	8fa30084 	lw	v1,132(sp)
80100ba4:	8fa20084 	lw	v0,132(sp)
80100ba8:	24420004 	addiu	v0,v0,4
80100bac:	8444fffc 	lh	a0,-4(v0)
80100bb0:	afa20084 	sw	v0,132(sp)
80100bb4:	24050008 	li	a1,8
80100bb8:	08040241 	j	80100904 <_doprntx+0x2a4>
80100bbc:	00003821 	move	a3,zero
80100bc0:	24630004 	addiu	v1,v1,4
80100bc4:	8c64fffc 	lw	a0,-4(v1)
80100bc8:	080402ed 	j	80100bb4 <_doprntx+0x554>
80100bcc:	afa30084 	sw	v1,132(sp)
80100bd0:	8fa30034 	lw	v1,52(sp)
80100bd4:	34630001 	ori	v1,v1,0x1
80100bd8:	afa30034 	sw	v1,52(sp)
80100bdc:	8fa40034 	lw	a0,52(sp)
80100be0:	30820004 	andi	v0,a0,0x4
80100be4:	10400007 	beqz	v0,80100c04 <_doprntx+0x5a4>
80100be8:	8fa30084 	lw	v1,132(sp)
80100bec:	8fa20084 	lw	v0,132(sp)
80100bf0:	24420004 	addiu	v0,v0,4
80100bf4:	8444fffc 	lh	a0,-4(v0)
80100bf8:	afa20084 	sw	v0,132(sp)
80100bfc:	080402ee 	j	80100bb8 <_doprntx+0x558>
80100c00:	2405000a 	li	a1,10
80100c04:	24630004 	addiu	v1,v1,4
80100c08:	8c64fffc 	lw	a0,-4(v1)
80100c0c:	080402ff 	j	80100bfc <_doprntx+0x59c>
80100c10:	afa30084 	sw	v1,132(sp)
80100c14:	3c048010 	lui	a0,0x8010
80100c18:	248447b4 	addiu	a0,a0,18356
80100c1c:	afa40040 	sw	a0,64(sp)
80100c20:	8fa30034 	lw	v1,52(sp)
80100c24:	30620004 	andi	v0,v1,0x4
80100c28:	1040000d 	beqz	v0,80100c60 <_doprntx+0x600>
80100c2c:	8fa20084 	lw	v0,132(sp)
80100c30:	8fa40084 	lw	a0,132(sp)
80100c34:	24840004 	addiu	a0,a0,4
80100c38:	afa40084 	sw	a0,132(sp)
80100c3c:	8484fffc 	lh	a0,-4(a0)
80100c40:	8fa30034 	lw	v1,52(sp)
80100c44:	30620008 	andi	v0,v1,0x8
80100c48:	1040ffdb 	beqz	v0,80100bb8 <_doprntx+0x558>
80100c4c:	24050010 	li	a1,16
80100c50:	34620040 	ori	v0,v1,0x40
80100c54:	0044180b 	movn	v1,v0,a0
80100c58:	080402ee 	j	80100bb8 <_doprntx+0x558>
80100c5c:	afa30034 	sw	v1,52(sp)
80100c60:	24420004 	addiu	v0,v0,4
80100c64:	8c44fffc 	lw	a0,-4(v0)
80100c68:	08040310 	j	80100c40 <_doprntx+0x5e0>
80100c6c:	afa20084 	sw	v0,132(sp)
80100c70:	8fa30084 	lw	v1,132(sp)
80100c74:	24040001 	li	a0,1
80100c78:	27b10010 	addiu	s1,sp,16
80100c7c:	24630004 	addiu	v1,v1,4
80100c80:	9062fffc 	lbu	v0,-4(v1)
80100c84:	00003821 	move	a3,zero
80100c88:	afa30084 	sw	v1,132(sp)
80100c8c:	afa40038 	sw	a0,56(sp)
80100c90:	08040265 	j	80100994 <_doprntx+0x334>
80100c94:	a3a20010 	sb	v0,16(sp)
80100c98:	8fa40034 	lw	a0,52(sp)
80100c9c:	34840004 	ori	a0,a0,0x4
80100ca0:	080401c2 	j	80100708 <_doprntx+0xa8>
80100ca4:	afa40034 	sw	a0,52(sp)
80100ca8:	8fa20034 	lw	v0,52(sp)
80100cac:	0804021b 	j	8010086c <_doprntx+0x20c>
80100cb0:	34420001 	ori	v0,v0,0x1
80100cb4:	8fa30034 	lw	v1,52(sp)
80100cb8:	30620001 	andi	v0,v1,0x1
80100cbc:	10400007 	beqz	v0,80100cdc <_doprntx+0x67c>
80100cc0:	30620004 	andi	v0,v1,0x4
80100cc4:	8fa40084 	lw	a0,132(sp)
80100cc8:	24840004 	addiu	a0,a0,4
80100ccc:	8c82fffc 	lw	v0,-4(a0)
80100cd0:	afa40084 	sw	a0,132(sp)
80100cd4:	080402ae 	j	80100ab8 <_doprntx+0x458>
80100cd8:	ac570000 	sw	s7,0(v0)
80100cdc:	10400007 	beqz	v0,80100cfc <_doprntx+0x69c>
80100ce0:	8fa20084 	lw	v0,132(sp)
80100ce4:	8fa40084 	lw	a0,132(sp)
80100ce8:	24840004 	addiu	a0,a0,4
80100cec:	8c82fffc 	lw	v0,-4(a0)
80100cf0:	afa40084 	sw	a0,132(sp)
80100cf4:	080402ae 	j	80100ab8 <_doprntx+0x458>
80100cf8:	a4570000 	sh	s7,0(v0)
80100cfc:	24420004 	addiu	v0,v0,4
80100d00:	afa20084 	sw	v0,132(sp)
80100d04:	08040335 	j	80100cd4 <_doprntx+0x674>
80100d08:	8c42fffc 	lw	v0,-4(v0)
80100d0c:	8fa40084 	lw	a0,132(sp)
80100d10:	24050010 	li	a1,16
80100d14:	24840004 	addiu	a0,a0,4
80100d18:	afa40084 	sw	a0,132(sp)
80100d1c:	080402ee 	j	80100bb8 <_doprntx+0x558>
80100d20:	8c84fffc 	lw	a0,-4(a0)
80100d24:	8fa20084 	lw	v0,132(sp)
80100d28:	24420004 	addiu	v0,v0,4
80100d2c:	afa20084 	sw	v0,132(sp)
80100d30:	8c51fffc 	lw	s1,-4(v0)
80100d34:	3c028010 	lui	v0,0x8010
80100d38:	244247c8 	addiu	v0,v0,18376
80100d3c:	0660000f 	bltz	s3,80100d7c <_doprntx+0x71c>
80100d40:	0051880a 	movz	s1,v0,s1
80100d44:	02202021 	move	a0,s1
80100d48:	00002821 	move	a1,zero
80100d4c:	0c04059e 	jal	80101678 <memchr>
80100d50:	02603021 	move	a2,s3
80100d54:	10400007 	beqz	v0,80100d74 <_doprntx+0x714>
80100d58:	afb30038 	sw	s3,56(sp)
80100d5c:	00511023 	subu	v0,v0,s1
80100d60:	afa20038 	sw	v0,56(sp)
80100d64:	0262102a 	slt	v0,s3,v0
80100d68:	10400002 	beqz	v0,80100d74 <_doprntx+0x714>
80100d6c:	00000000 	nop
80100d70:	afb30038 	sw	s3,56(sp)
80100d74:	08040265 	j	80100994 <_doprntx+0x334>
80100d78:	00003821 	move	a3,zero
80100d7c:	0c0405ad 	jal	801016b4 <strlen>
80100d80:	02202021 	move	a0,s1
80100d84:	0804035d 	j	80100d74 <_doprntx+0x714>
80100d88:	afa20038 	sw	v0,56(sp)
80100d8c:	00042600 	sll	a0,a0,0x18
80100d90:	00042603 	sra	a0,a0,0x18
80100d94:	02c0f809 	jalr	s6
80100d98:	02a02821 	move	a1,s5
80100d9c:	080402ae 	j	80100ab8 <_doprntx+0x458>
80100da0:	26f70001 	addiu	s7,s7,1
80100da4:	2404000d 	li	a0,13
80100da8:	02c0f809 	jalr	s6
80100dac:	02a02821 	move	a1,s5
80100db0:	2404000a 	li	a0,10
80100db4:	02c0f809 	jalr	s6
80100db8:	02a02821 	move	a1,s5
80100dbc:	080401b6 	j	801006d8 <_doprntx+0x78>
80100dc0:	26f70001 	addiu	s7,s7,1

80100dc4 <putch>:
80100dc4:	8ca20000 	lw	v0,0(a1)
80100dc8:	a0440000 	sb	a0,0(v0)
80100dcc:	24420001 	addiu	v0,v0,1
80100dd0:	03e00008 	jr	ra
80100dd4:	aca20000 	sw	v0,0(a1)

80100dd8 <_putc>:
80100dd8:	00042600 	sll	a0,a0,0x18
80100ddc:	27bdffe8 	addiu	sp,sp,-24
80100de0:	afbf0010 	sw	ra,16(sp)
80100de4:	0c0408e2 	jal	80102388 <serial_putc>
80100de8:	00042603 	sra	a0,a0,0x18
80100dec:	8fbf0010 	lw	ra,16(sp)
80100df0:	03e00008 	jr	ra
80100df4:	27bd0018 	addiu	sp,sp,24

80100df8 <printf>:
80100df8:	afa50004 	sw	a1,4(sp)
80100dfc:	afa60008 	sw	a2,8(sp)
80100e00:	afa7000c 	sw	a3,12(sp)
80100e04:	27bdffe8 	addiu	sp,sp,-24
80100e08:	27a5001c 	addiu	a1,sp,28
80100e0c:	3c068010 	lui	a2,0x8010
80100e10:	24c60dd8 	addiu	a2,a2,3544
80100e14:	00003821 	move	a3,zero
80100e18:	afbf0010 	sw	ra,16(sp)
80100e1c:	0c040198 	jal	80100660 <_doprntx>
80100e20:	afa40018 	sw	a0,24(sp)
80100e24:	8fbf0010 	lw	ra,16(sp)
80100e28:	03e00008 	jr	ra
80100e2c:	27bd0018 	addiu	sp,sp,24

80100e30 <_PrintChar>:
80100e30:	00052600 	sll	a0,a1,0x18
80100e34:	27bdffe8 	addiu	sp,sp,-24
80100e38:	afbf0010 	sw	ra,16(sp)
80100e3c:	0c040923 	jal	8010248c <SerialOutputByte>
80100e40:	00042603 	sra	a0,a0,0x18
80100e44:	8fbf0010 	lw	ra,16(sp)
80100e48:	03e00008 	jr	ra
80100e4c:	27bd0018 	addiu	sp,sp,24

80100e50 <_PrintDec>:
80100e50:	27bdffd0 	addiu	sp,sp,-48
80100e54:	afb20028 	sw	s2,40(sp)
80100e58:	afb10024 	sw	s1,36(sp)
80100e5c:	afb00020 	sw	s0,32(sp)
80100e60:	afbf002c 	sw	ra,44(sp)
80100e64:	00a08021 	move	s0,a1
80100e68:	00809021 	move	s2,a0
80100e6c:	10a00034 	beqz	a1,80100f40 <_PrintDec+0xf0>
80100e70:	00008821 	move	s1,zero
80100e74:	04a0002e 	bltz	a1,80100f30 <_PrintDec+0xe0>
80100e78:	00000000 	nop
80100e7c:	3c020001 	lui	v0,0x1
80100e80:	344286a0 	ori	v0,v0,0x86a0
80100e84:	0050102a 	slt	v0,v0,s0
80100e88:	14400024 	bnez	v0,80100f1c <_PrintDec+0xcc>
80100e8c:	8fbf002c 	lw	ra,44(sp)
80100e90:	27a80010 	addiu	t0,sp,16
80100e94:	01111821 	addu	v1,t0,s1
80100e98:	26310001 	addiu	s1,s1,1
80100e9c:	2a22000a 	slti	v0,s1,10
80100ea0:	1440fffc 	bnez	v0,80100e94 <_PrintDec+0x44>
80100ea4:	a0600000 	sb	zero,0(v1)
80100ea8:	3c076666 	lui	a3,0x6666
80100eac:	24110007 	li	s1,7
80100eb0:	34e76667 	ori	a3,a3,0x6667
80100eb4:	02070018 	mult	s0,a3
80100eb8:	001027c3 	sra	a0,s0,0x1f
80100ebc:	02282821 	addu	a1,s1,t0
80100ec0:	2631ffff 	addiu	s1,s1,-1
80100ec4:	00001810 	mfhi	v1
80100ec8:	00031883 	sra	v1,v1,0x2
80100ecc:	00643023 	subu	a2,v1,a0
80100ed0:	00061080 	sll	v0,a2,0x2
80100ed4:	00461021 	addu	v0,v0,a2
80100ed8:	00021040 	sll	v0,v0,0x1
80100edc:	02023023 	subu	a2,s0,v0
80100ee0:	02061823 	subu	v1,s0,a2
80100ee4:	00670018 	mult	v1,a3
80100ee8:	24c20030 	addiu	v0,a2,48
80100eec:	00031fc3 	sra	v1,v1,0x1f
80100ef0:	a0a20000 	sb	v0,0(a1)
80100ef4:	00002010 	mfhi	a0
80100ef8:	00042083 	sra	a0,a0,0x2
80100efc:	1e20ffed 	bgtz	s1,80100eb4 <_PrintDec+0x64>
80100f00:	00838023 	subu	s0,a0,v1
80100f04:	24020020 	li	v0,32
80100f08:	02402021 	move	a0,s2
80100f0c:	27a50010 	addiu	a1,sp,16
80100f10:	0c040494 	jal	80101250 <_PrintString>
80100f14:	a3a20010 	sb	v0,16(sp)
80100f18:	8fbf002c 	lw	ra,44(sp)
80100f1c:	8fb20028 	lw	s2,40(sp)
80100f20:	8fb10024 	lw	s1,36(sp)
80100f24:	8fb00020 	lw	s0,32(sp)
80100f28:	03e00008 	jr	ra
80100f2c:	27bd0030 	addiu	sp,sp,48
80100f30:	0c040923 	jal	8010248c <SerialOutputByte>
80100f34:	2404002d 	li	a0,45
80100f38:	0804039f 	j	80100e7c <_PrintDec+0x2c>
80100f3c:	00108023 	negu	s0,s0
80100f40:	0c040923 	jal	8010248c <SerialOutputByte>
80100f44:	24040030 	li	a0,48
80100f48:	080403c7 	j	80100f1c <_PrintDec+0xcc>
80100f4c:	8fbf002c 	lw	ra,44(sp)

80100f50 <_PrintHex>:
80100f50:	27bdffc0 	addiu	sp,sp,-64
80100f54:	afb30034 	sw	s3,52(sp)
80100f58:	afb20030 	sw	s2,48(sp)
80100f5c:	afb1002c 	sw	s1,44(sp)
80100f60:	afb00028 	sw	s0,40(sp)
80100f64:	afbf003c 	sw	ra,60(sp)
80100f68:	afb40038 	sw	s4,56(sp)
80100f6c:	80830000 	lb	v1,0(a0)
80100f70:	00808021 	move	s0,a0
80100f74:	afa50044 	sw	a1,68(sp)
80100f78:	afa00020 	sw	zero,32(sp)
80100f7c:	00009821 	move	s3,zero
80100f80:	24120001 	li	s2,1
80100f84:	10600023 	beqz	v1,80101014 <_PrintHex+0xc4>
80100f88:	00008821 	move	s1,zero
80100f8c:	24020078 	li	v0,120
80100f90:	10620020 	beq	v1,v0,80101014 <_PrintHex+0xc4>
80100f94:	2462ffcf 	addiu	v0,v1,-49
80100f98:	2c420009 	sltiu	v0,v0,9
80100f9c:	104000a9 	beqz	v0,80101244 <_PrintHex+0x2f4>
80100fa0:	38630030 	xori	v1,v1,0x30
80100fa4:	02111021 	addu	v0,s0,s1
80100fa8:	90430000 	lbu	v1,0(v0)
80100fac:	00002821 	move	a1,zero
80100fb0:	2462ffd0 	addiu	v0,v1,-48
80100fb4:	304200ff 	andi	v0,v0,0xff
80100fb8:	2c42000a 	sltiu	v0,v0,10
80100fbc:	1040000b 	beqz	v0,80100fec <_PrintHex+0x9c>
80100fc0:	27a40010 	addiu	a0,sp,16
80100fc4:	00851021 	addu	v0,a0,a1
80100fc8:	26310001 	addiu	s1,s1,1
80100fcc:	a0430000 	sb	v1,0(v0)
80100fd0:	02111021 	addu	v0,s0,s1
80100fd4:	90430000 	lbu	v1,0(v0)
80100fd8:	2462ffd0 	addiu	v0,v1,-48
80100fdc:	304200ff 	andi	v0,v0,0xff
80100fe0:	2c42000a 	sltiu	v0,v0,10
80100fe4:	1440fff7 	bnez	v0,80100fc4 <_PrintHex+0x74>
80100fe8:	24a50001 	addiu	a1,a1,1
80100fec:	00851021 	addu	v0,a0,a1
80100ff0:	a0400000 	sb	zero,0(v0)
80100ff4:	27a50020 	addiu	a1,sp,32
80100ff8:	0c040179 	jal	801005e4 <DecToLong>
80100ffc:	2631ffff 	addiu	s1,s1,-1
80101000:	26310001 	addiu	s1,s1,1
80101004:	02111021 	addu	v0,s0,s1
80101008:	80430000 	lb	v1,0(v0)
8010100c:	1460ffe0 	bnez	v1,80100f90 <_PrintHex+0x40>
80101010:	24020078 	li	v0,120
80101014:	8fa50044 	lw	a1,68(sp)
80101018:	8fa60020 	lw	a2,32(sp)
8010101c:	27b40044 	addiu	s4,sp,68
80101020:	30a4ff00 	andi	a0,a1,0xff00
80101024:	00051600 	sll	v0,a1,0x18
80101028:	00051a02 	srl	v1,a1,0x8
8010102c:	00042200 	sll	a0,a0,0x8
80101030:	00441025 	or	v0,v0,a0
80101034:	3063ff00 	andi	v1,v1,0xff00
80101038:	00431025 	or	v0,v0,v1
8010103c:	00052e02 	srl	a1,a1,0x18
80101040:	00451025 	or	v0,v0,a1
80101044:	afa20044 	sw	v0,68(sp)
80101048:	10c00053 	beqz	a2,80101198 <_PrintHex+0x248>
8010104c:	00008821 	move	s1,zero
80101050:	30c20001 	andi	v0,a2,0x1
80101054:	10400018 	beqz	v0,801010b8 <_PrintHex+0x168>
80101058:	24020008 	li	v0,8
8010105c:	24020007 	li	v0,7
80101060:	00461023 	subu	v0,v0,a2
80101064:	00021fc2 	srl	v1,v0,0x1f
80101068:	00431021 	addu	v0,v0,v1
8010106c:	00021043 	sra	v0,v0,0x1
80101070:	00541021 	addu	v0,v0,s4
80101074:	90430000 	lbu	v1,0(v0)
80101078:	3070000f 	andi	s0,v1,0xf
8010107c:	2a02000a 	slti	v0,s0,10
80101080:	10400041 	beqz	v0,80101188 <_PrintHex+0x238>
80101084:	0010900b 	movn	s2,zero,s0
80101088:	26100030 	addiu	s0,s0,48
8010108c:	12400004 	beqz	s2,801010a0 <_PrintHex+0x150>
80101090:	02002021 	move	a0,s0
80101094:	16600002 	bnez	s3,801010a0 <_PrintHex+0x150>
80101098:	24040030 	li	a0,48
8010109c:	24040020 	li	a0,32
801010a0:	0c040923 	jal	8010248c <SerialOutputByte>
801010a4:	00000000 	nop
801010a8:	8fa20020 	lw	v0,32(sp)
801010ac:	2446ffff 	addiu	a2,v0,-1
801010b0:	afa60020 	sw	a2,32(sp)
801010b4:	24020008 	li	v0,8
801010b8:	00461023 	subu	v0,v0,a2
801010bc:	00021fc2 	srl	v1,v0,0x1f
801010c0:	00431021 	addu	v0,v0,v1
801010c4:	00028843 	sra	s1,v0,0x1
801010c8:	2a230004 	slti	v1,s1,4
801010cc:	10600023 	beqz	v1,8010115c <_PrintHex+0x20c>
801010d0:	8fbf003c 	lw	ra,60(sp)
801010d4:	02911021 	addu	v0,s4,s1
801010d8:	90430000 	lbu	v1,0(v0)
801010dc:	00031e00 	sll	v1,v1,0x18
801010e0:	00032702 	srl	a0,v1,0x1c
801010e4:	2882000a 	slti	v0,a0,10
801010e8:	00031e02 	srl	v1,v1,0x18
801010ec:	3070000f 	andi	s0,v1,0xf
801010f0:	10400021 	beqz	v0,80101178 <_PrintHex+0x228>
801010f4:	0004900b 	movn	s2,zero,a0
801010f8:	24840030 	addiu	a0,a0,48
801010fc:	12400004 	beqz	s2,80101110 <_PrintHex+0x1c0>
80101100:	00000000 	nop
80101104:	16600002 	bnez	s3,80101110 <_PrintHex+0x1c0>
80101108:	24040030 	li	a0,48
8010110c:	24040020 	li	a0,32
80101110:	0c040923 	jal	8010248c <SerialOutputByte>
80101114:	0010900b 	movn	s2,zero,s0
80101118:	2a02000a 	slti	v0,s0,10
8010111c:	10400002 	beqz	v0,80101128 <_PrintHex+0x1d8>
80101120:	26020037 	addiu	v0,s0,55
80101124:	26020030 	addiu	v0,s0,48
80101128:	00021600 	sll	v0,v0,0x18
8010112c:	00028603 	sra	s0,v0,0x18
80101130:	12400004 	beqz	s2,80101144 <_PrintHex+0x1f4>
80101134:	02002021 	move	a0,s0
80101138:	16600002 	bnez	s3,80101144 <_PrintHex+0x1f4>
8010113c:	24040030 	li	a0,48
80101140:	24040020 	li	a0,32
80101144:	0c040923 	jal	8010248c <SerialOutputByte>
80101148:	26310001 	addiu	s1,s1,1
8010114c:	2a220004 	slti	v0,s1,4
80101150:	1440ffe1 	bnez	v0,801010d8 <_PrintHex+0x188>
80101154:	02911021 	addu	v0,s4,s1
80101158:	8fbf003c 	lw	ra,60(sp)
8010115c:	8fb40038 	lw	s4,56(sp)
80101160:	8fb30034 	lw	s3,52(sp)
80101164:	8fb20030 	lw	s2,48(sp)
80101168:	8fb1002c 	lw	s1,44(sp)
8010116c:	8fb00028 	lw	s0,40(sp)
80101170:	03e00008 	jr	ra
80101174:	27bd0040 	addiu	sp,sp,64
80101178:	24820037 	addiu	v0,a0,55
8010117c:	00021600 	sll	v0,v0,0x18
80101180:	0804043f 	j	801010fc <_PrintHex+0x1ac>
80101184:	00022603 	sra	a0,v0,0x18
80101188:	26020037 	addiu	v0,s0,55
8010118c:	00021600 	sll	v0,v0,0x18
80101190:	08040423 	j	8010108c <_PrintHex+0x13c>
80101194:	00028603 	sra	s0,v0,0x18
80101198:	02911021 	addu	v0,s4,s1
8010119c:	90430000 	lbu	v1,0(v0)
801011a0:	00031e00 	sll	v1,v1,0x18
801011a4:	00032702 	srl	a0,v1,0x1c
801011a8:	2882000a 	slti	v0,a0,10
801011ac:	00031e02 	srl	v1,v1,0x18
801011b0:	3070000f 	andi	s0,v1,0xf
801011b4:	1040001f 	beqz	v0,80101234 <_PrintHex+0x2e4>
801011b8:	0004900b 	movn	s2,zero,a0
801011bc:	24840030 	addiu	a0,a0,48
801011c0:	12400018 	beqz	s2,80101224 <_PrintHex+0x2d4>
801011c4:	00000000 	nop
801011c8:	16000014 	bnez	s0,8010121c <_PrintHex+0x2cc>
801011cc:	24020003 	li	v0,3
801011d0:	12220012 	beq	s1,v0,8010121c <_PrintHex+0x2cc>
801011d4:	00000000 	nop
801011d8:	2a02000a 	slti	v0,s0,10
801011dc:	10400002 	beqz	v0,801011e8 <_PrintHex+0x298>
801011e0:	26020037 	addiu	v0,s0,55
801011e4:	26020030 	addiu	v0,s0,48
801011e8:	00021600 	sll	v0,v0,0x18
801011ec:	12400007 	beqz	s2,8010120c <_PrintHex+0x2bc>
801011f0:	00028603 	sra	s0,v0,0x18
801011f4:	26310001 	addiu	s1,s1,1
801011f8:	2a220004 	slti	v0,s1,4
801011fc:	1440ffe7 	bnez	v0,8010119c <_PrintHex+0x24c>
80101200:	02911021 	addu	v0,s4,s1
80101204:	08040457 	j	8010115c <_PrintHex+0x20c>
80101208:	8fbf003c 	lw	ra,60(sp)
8010120c:	0c040923 	jal	8010248c <SerialOutputByte>
80101210:	02002021 	move	a0,s0
80101214:	0804047e 	j	801011f8 <_PrintHex+0x2a8>
80101218:	26310001 	addiu	s1,s1,1
8010121c:	08040476 	j	801011d8 <_PrintHex+0x288>
80101220:	00009021 	move	s2,zero
80101224:	0c040923 	jal	8010248c <SerialOutputByte>
80101228:	00000000 	nop
8010122c:	08040472 	j	801011c8 <_PrintHex+0x278>
80101230:	00000000 	nop
80101234:	24820037 	addiu	v0,a0,55
80101238:	00021600 	sll	v0,v0,0x18
8010123c:	08040470 	j	801011c0 <_PrintHex+0x270>
80101240:	00022603 	sra	a0,v0,0x18
80101244:	24020001 	li	v0,1
80101248:	08040400 	j	80101000 <_PrintHex+0xb0>
8010124c:	0043980a 	movz	s3,v0,v1

80101250 <_PrintString>:
80101250:	27bdffe8 	addiu	sp,sp,-24
80101254:	afb00010 	sw	s0,16(sp)
80101258:	afbf0014 	sw	ra,20(sp)
8010125c:	1080000f 	beqz	a0,8010129c <_PrintString+0x4c>
80101260:	00a08021 	move	s0,a1
80101264:	10a0000e 	beqz	a1,801012a0 <_PrintString+0x50>
80101268:	8fbf0014 	lw	ra,20(sp)
8010126c:	90a20000 	lbu	v0,0(a1)
80101270:	00021600 	sll	v0,v0,0x18
80101274:	1040000a 	beqz	v0,801012a0 <_PrintString+0x50>
80101278:	00000000 	nop
8010127c:	00402021 	move	a0,v0
80101280:	00042603 	sra	a0,a0,0x18
80101284:	0c040923 	jal	8010248c <SerialOutputByte>
80101288:	26100001 	addiu	s0,s0,1
8010128c:	92020000 	lbu	v0,0(s0)
80101290:	00021600 	sll	v0,v0,0x18
80101294:	1440fffa 	bnez	v0,80101280 <_PrintString+0x30>
80101298:	00402021 	move	a0,v0
8010129c:	8fbf0014 	lw	ra,20(sp)
801012a0:	8fb00010 	lw	s0,16(sp)
801012a4:	03e00008 	jr	ra
801012a8:	27bd0018 	addiu	sp,sp,24

801012ac <getc>:
801012ac:	27bdffe8 	addiu	sp,sp,-24
801012b0:	afbf0010 	sw	ra,16(sp)
801012b4:	0c04090c 	jal	80102430 <serial_getc>
801012b8:	00000000 	nop
801012bc:	8fbf0010 	lw	ra,16(sp)
801012c0:	03e00008 	jr	ra
801012c4:	27bd0018 	addiu	sp,sp,24

801012c8 <gets>:
801012c8:	27bdffd8 	addiu	sp,sp,-40
801012cc:	afb40020 	sw	s4,32(sp)
801012d0:	afb3001c 	sw	s3,28(sp)
801012d4:	afb20018 	sw	s2,24(sp)
801012d8:	afb10014 	sw	s1,20(sp)
801012dc:	afb00010 	sw	s0,16(sp)
801012e0:	00008821 	move	s1,zero
801012e4:	00808021 	move	s0,a0
801012e8:	2412000d 	li	s2,13
801012ec:	24130008 	li	s3,8
801012f0:	24140020 	li	s4,32
801012f4:	afbf0024 	sw	ra,36(sp)
801012f8:	0c0404ab 	jal	801012ac <getc>
801012fc:	00000000 	nop
80101300:	00021600 	sll	v0,v0,0x18
80101304:	00021603 	sra	v0,v0,0x18
80101308:	3c048010 	lui	a0,0x8010
8010130c:	248449b4 	addiu	a0,a0,18868
80101310:	10520012 	beq	v0,s2,8010135c <gets+0x94>
80101314:	00402821 	move	a1,v0
80101318:	10530007 	beq	v0,s3,80101338 <gets+0x70>
8010131c:	00000000 	nop
80101320:	a2020000 	sb	v0,0(s0)
80101324:	26310001 	addiu	s1,s1,1
80101328:	0c04037e 	jal	80100df8 <printf>
8010132c:	26100001 	addiu	s0,s0,1
80101330:	080404be 	j	801012f8 <gets+0x30>
80101334:	00000000 	nop
80101338:	3c048010 	lui	a0,0x8010
8010133c:	1a20ffee 	blez	s1,801012f8 <gets+0x30>
80101340:	248449b8 	addiu	a0,a0,18872
80101344:	a2140000 	sb	s4,0(s0)
80101348:	2631ffff 	addiu	s1,s1,-1
8010134c:	0c04037e 	jal	80100df8 <printf>
80101350:	2610ffff 	addiu	s0,s0,-1
80101354:	080404be 	j	801012f8 <gets+0x30>
80101358:	00000000 	nop
8010135c:	02201021 	move	v0,s1
80101360:	a2000000 	sb	zero,0(s0)
80101364:	8fbf0024 	lw	ra,36(sp)
80101368:	8fb40020 	lw	s4,32(sp)
8010136c:	8fb3001c 	lw	s3,28(sp)
80101370:	8fb20018 	lw	s2,24(sp)
80101374:	8fb10014 	lw	s1,20(sp)
80101378:	8fb00010 	lw	s0,16(sp)
8010137c:	03e00008 	jr	ra
80101380:	27bd0028 	addiu	sp,sp,40

80101384 <putchar>:
80101384:	27bdffe8 	addiu	sp,sp,-24
80101388:	afb00010 	sw	s0,16(sp)
8010138c:	00808021 	move	s0,a0
80101390:	00042600 	sll	a0,a0,0x18
80101394:	afbf0014 	sw	ra,20(sp)
80101398:	0c040923 	jal	8010248c <SerialOutputByte>
8010139c:	00042603 	sra	a0,a0,0x18
801013a0:	02001021 	move	v0,s0
801013a4:	8fbf0014 	lw	ra,20(sp)
801013a8:	8fb00010 	lw	s0,16(sp)
801013ac:	03e00008 	jr	ra
801013b0:	27bd0018 	addiu	sp,sp,24

801013b4 <puts>:
801013b4:	27bdffe8 	addiu	sp,sp,-24
801013b8:	afb00010 	sw	s0,16(sp)
801013bc:	afbf0014 	sw	ra,20(sp)
801013c0:	90820000 	lbu	v0,0(a0)
801013c4:	00021600 	sll	v0,v0,0x18
801013c8:	10400009 	beqz	v0,801013f0 <puts+0x3c>
801013cc:	00808021 	move	s0,a0
801013d0:	00402021 	move	a0,v0
801013d4:	00042603 	sra	a0,a0,0x18
801013d8:	0c040923 	jal	8010248c <SerialOutputByte>
801013dc:	26100001 	addiu	s0,s0,1
801013e0:	92020000 	lbu	v0,0(s0)
801013e4:	00021600 	sll	v0,v0,0x18
801013e8:	1440fffa 	bnez	v0,801013d4 <puts+0x20>
801013ec:	00402021 	move	a0,v0
801013f0:	8fbf0014 	lw	ra,20(sp)
801013f4:	8fb00010 	lw	s0,16(sp)
801013f8:	24020001 	li	v0,1
801013fc:	03e00008 	jr	ra
80101400:	27bd0018 	addiu	sp,sp,24

80101404 <strtok>:
80101404:	27bdffe0 	addiu	sp,sp,-32
80101408:	afb10014 	sw	s1,20(sp)
8010140c:	afb00010 	sw	s0,16(sp)
80101410:	afbf0018 	sw	ra,24(sp)
80101414:	00808021 	move	s0,a0
80101418:	1080001f 	beqz	a0,80101498 <strtok+0x94>
8010141c:	00a08821 	move	s1,a1
80101420:	0c04052c 	jal	801014b0 <strspn>
80101424:	02002021 	move	a0,s0
80101428:	02028021 	addu	s0,s0,v0
8010142c:	82020000 	lb	v0,0(s0)
80101430:	02202821 	move	a1,s1
80101434:	02002021 	move	a0,s0
80101438:	10400013 	beqz	v0,80101488 <strtok+0x84>
8010143c:	00003021 	move	a2,zero
80101440:	0c04054d 	jal	80101534 <strpbrk>
80101444:	00000000 	nop
80101448:	00401821 	move	v1,v0
8010144c:	10400006 	beqz	v0,80101468 <strtok+0x64>
80101450:	02003021 	move	a2,s0
80101454:	80420000 	lb	v0,0(v0)
80101458:	10400003 	beqz	v0,80101468 <strtok+0x64>
8010145c:	00000000 	nop
80101460:	a0600000 	sb	zero,0(v1)
80101464:	24630001 	addiu	v1,v1,1
80101468:	3c018013 	lui	at,0x8013
8010146c:	ac23d090 	sw	v1,-12144(at)
80101470:	8fbf0018 	lw	ra,24(sp)
80101474:	8fb10014 	lw	s1,20(sp)
80101478:	8fb00010 	lw	s0,16(sp)
8010147c:	00c01021 	move	v0,a2
80101480:	03e00008 	jr	ra
80101484:	27bd0020 	addiu	sp,sp,32
80101488:	3c018013 	lui	at,0x8013
8010148c:	ac20d090 	sw	zero,-12144(at)
80101490:	0804051d 	j	80101474 <strtok+0x70>
80101494:	8fbf0018 	lw	ra,24(sp)
80101498:	3c108013 	lui	s0,0x8013
8010149c:	8e10d090 	lw	s0,-12144(s0)
801014a0:	1600ffdf 	bnez	s0,80101420 <strtok+0x1c>
801014a4:	00003021 	move	a2,zero
801014a8:	0804051d 	j	80101474 <strtok+0x70>
801014ac:	8fbf0018 	lw	ra,24(sp)

801014b0 <strspn>:
801014b0:	80820000 	lb	v0,0(a0)
801014b4:	00004821 	move	t1,zero
801014b8:	10400018 	beqz	v0,8010151c <strspn+0x6c>
801014bc:	90830000 	lbu	v1,0(a0)
801014c0:	90aa0000 	lbu	t2,0(a1)
801014c4:	000a3600 	sll	a2,t2,0x18
801014c8:	10c00018 	beqz	a2,8010152c <strspn+0x7c>
801014cc:	00a03821 	move	a3,a1
801014d0:	00031600 	sll	v0,v1,0x18
801014d4:	00c04021 	move	t0,a2
801014d8:	00021e03 	sra	v1,v0,0x18
801014dc:	00081603 	sra	v0,t0,0x18
801014e0:	10620010 	beq	v1,v0,80101524 <strspn+0x74>
801014e4:	00000000 	nop
801014e8:	24e70001 	addiu	a3,a3,1
801014ec:	90e60000 	lbu	a2,0(a3)
801014f0:	00061600 	sll	v0,a2,0x18
801014f4:	1440fff9 	bnez	v0,801014dc <strspn+0x2c>
801014f8:	00404021 	move	t0,v0
801014fc:	00061600 	sll	v0,a2,0x18
80101500:	10400006 	beqz	v0,8010151c <strspn+0x6c>
80101504:	00000000 	nop
80101508:	24840001 	addiu	a0,a0,1
8010150c:	90830000 	lbu	v1,0(a0)
80101510:	00031600 	sll	v0,v1,0x18
80101514:	1440ffeb 	bnez	v0,801014c4 <strspn+0x14>
80101518:	25290001 	addiu	t1,t1,1
8010151c:	03e00008 	jr	ra
80101520:	01201021 	move	v0,t1
80101524:	0804053f 	j	801014fc <strspn+0x4c>
80101528:	90e60000 	lbu	a2,0(a3)
8010152c:	0804053f 	j	801014fc <strspn+0x4c>
80101530:	90a60000 	lbu	a2,0(a1)

80101534 <strpbrk>:
80101534:	80820000 	lb	v0,0(a0)
80101538:	10400015 	beqz	v0,80101590 <strpbrk+0x5c>
8010153c:	90880000 	lbu	t0,0(a0)
80101540:	90a90000 	lbu	t1,0(a1)
80101544:	00093e00 	sll	a3,t1,0x18
80101548:	10e0000b 	beqz	a3,80101578 <strpbrk+0x44>
8010154c:	00a03021 	move	a2,a1
80101550:	00081600 	sll	v0,t0,0x18
80101554:	00021e03 	sra	v1,v0,0x18
80101558:	00071603 	sra	v0,a3,0x18
8010155c:	24c60001 	addiu	a2,a2,1
80101560:	1062000c 	beq	v1,v0,80101594 <strpbrk+0x60>
80101564:	00803821 	move	a3,a0
80101568:	90c20000 	lbu	v0,0(a2)
8010156c:	00021600 	sll	v0,v0,0x18
80101570:	1440fff9 	bnez	v0,80101558 <strpbrk+0x24>
80101574:	00403821 	move	a3,v0
80101578:	24840001 	addiu	a0,a0,1
8010157c:	90820000 	lbu	v0,0(a0)
80101580:	00404021 	move	t0,v0
80101584:	00081e00 	sll	v1,t0,0x18
80101588:	1460ffef 	bnez	v1,80101548 <strpbrk+0x14>
8010158c:	00093e00 	sll	a3,t1,0x18
80101590:	00003821 	move	a3,zero
80101594:	03e00008 	jr	ra
80101598:	00e01021 	move	v0,a3

8010159c <strtoul>:
8010159c:	80860000 	lb	a2,0(a0)
801015a0:	00004021 	move	t0,zero
801015a4:	2409000a 	li	t1,10
801015a8:	00003821 	move	a3,zero
801015ac:	10c00020 	beqz	a2,80101630 <strtoul+0x94>
801015b0:	00005021 	move	t2,zero
801015b4:	240b0030 	li	t3,48
801015b8:	240c0001 	li	t4,1
801015bc:	240d0078 	li	t5,120
801015c0:	240e006f 	li	t6,111
801015c4:	14e00003 	bnez	a3,801015d4 <strtoul+0x38>
801015c8:	00000000 	nop
801015cc:	10cb0028 	beq	a2,t3,80101670 <strtoul+0xd4>
801015d0:	00000000 	nop
801015d4:	11400003 	beqz	t2,801015e4 <strtoul+0x48>
801015d8:	24c2ffd0 	addiu	v0,a2,-48
801015dc:	10ec001c 	beq	a3,t4,80101650 <strtoul+0xb4>
801015e0:	00000000 	nop
801015e4:	304200ff 	andi	v0,v0,0xff
801015e8:	2c43000a 	sltiu	v1,v0,10
801015ec:	14600007 	bnez	v1,8010160c <strtoul+0x70>
801015f0:	00402821 	move	a1,v0
801015f4:	24c2ff9f 	addiu	v0,a2,-97
801015f8:	2c42001a 	sltiu	v0,v0,26
801015fc:	1040000f 	beqz	v0,8010163c <strtoul+0xa0>
80101600:	24c2ffbf 	addiu	v0,a2,-65
80101604:	24c2ffa9 	addiu	v0,a2,-87
80101608:	304500ff 	andi	a1,v0,0xff
8010160c:	00a9102a 	slt	v0,a1,t1
80101610:	10400008 	beqz	v0,80101634 <strtoul+0x98>
80101614:	00001821 	move	v1,zero
80101618:	71091002 	mul	v0,t0,t1
8010161c:	00454021 	addu	t0,v0,a1
80101620:	24840001 	addiu	a0,a0,1
80101624:	80860000 	lb	a2,0(a0)
80101628:	14c0ffe6 	bnez	a2,801015c4 <strtoul+0x28>
8010162c:	24e70001 	addiu	a3,a3,1
80101630:	01001821 	move	v1,t0
80101634:	03e00008 	jr	ra
80101638:	00601021 	move	v0,v1
8010163c:	2c42001a 	sltiu	v0,v0,26
80101640:	1040fffc 	beqz	v0,80101634 <strtoul+0x98>
80101644:	00001821 	move	v1,zero
80101648:	08040582 	j	80101608 <strtoul+0x6c>
8010164c:	24c2ffc9 	addiu	v0,a2,-55
80101650:	10cd0005 	beq	a2,t5,80101668 <strtoul+0xcc>
80101654:	00000000 	nop
80101658:	14ceffe2 	bne	a2,t6,801015e4 <strtoul+0x48>
8010165c:	24c2ffd0 	addiu	v0,a2,-48
80101660:	08040588 	j	80101620 <strtoul+0x84>
80101664:	24090008 	li	t1,8
80101668:	08040588 	j	80101620 <strtoul+0x84>
8010166c:	24090010 	li	t1,16
80101670:	08040588 	j	80101620 <strtoul+0x84>
80101674:	240a0001 	li	t2,1

80101678 <memchr>:
80101678:	24c6ffff 	addiu	a2,a2,-1
8010167c:	2402ffff 	li	v0,-1
80101680:	10c2000a 	beq	a2,v0,801016ac <memchr+0x34>
80101684:	00001821 	move	v1,zero
80101688:	30a500ff 	andi	a1,a1,0xff
8010168c:	2407ffff 	li	a3,-1
80101690:	90820000 	lbu	v0,0(a0)
80101694:	24840001 	addiu	a0,a0,1
80101698:	24c6ffff 	addiu	a2,a2,-1
8010169c:	10450003 	beq	v0,a1,801016ac <memchr+0x34>
801016a0:	2483ffff 	addiu	v1,a0,-1
801016a4:	14c7fffa 	bne	a2,a3,80101690 <memchr+0x18>
801016a8:	00001821 	move	v1,zero
801016ac:	03e00008 	jr	ra
801016b0:	00601021 	move	v0,v1

801016b4 <strlen>:
801016b4:	80820000 	lb	v0,0(a0)
801016b8:	10400005 	beqz	v0,801016d0 <strlen+0x1c>
801016bc:	00801821 	move	v1,a0
801016c0:	24630001 	addiu	v1,v1,1
801016c4:	80620000 	lb	v0,0(v1)
801016c8:	1440fffd 	bnez	v0,801016c0 <strlen+0xc>
801016cc:	00000000 	nop
801016d0:	03e00008 	jr	ra
801016d4:	00641023 	subu	v0,v1,a0
	...

801016e0 <init_thread_stack>:
801016e0:	3c198013 	lui	t9,0x8013
801016e4:	8f39d0a0 	lw	t9,-12128(t9)
801016e8:	27bdffb0 	addiu	sp,sp,-80
801016ec:	afbe0048 	sw	s8,72(sp)
801016f0:	afbf004c 	sw	ra,76(sp)
801016f4:	afb70044 	sw	s7,68(sp)
801016f8:	afb60040 	sw	s6,64(sp)
801016fc:	afb5003c 	sw	s5,60(sp)
80101700:	afb40038 	sw	s4,56(sp)
80101704:	afb30034 	sw	s3,52(sp)
80101708:	afb20030 	sw	s2,48(sp)
8010170c:	afb1002c 	sw	s1,44(sp)
80101710:	afb00028 	sw	s0,40(sp)
80101714:	afa60058 	sw	a2,88(sp)
80101718:	afa40050 	sw	a0,80(sp)
8010171c:	afa50054 	sw	a1,84(sp)
80101720:	13200073 	beqz	t9,801018f0 <init_thread_stack+0x210>
80101724:	24defe00 	addiu	s8,a2,-512
80101728:	3c022525 	lui	v0,0x2525
8010172c:	34422525 	ori	v0,v0,0x2525
80101730:	afa20010 	sw	v0,16(sp)
80101734:	3c022626 	lui	v0,0x2626
80101738:	34422626 	ori	v0,v0,0x2626
8010173c:	afa20014 	sw	v0,20(sp)
80101740:	3c022727 	lui	v0,0x2727
80101744:	34422727 	ori	v0,v0,0x2727
80101748:	afa20018 	sw	v0,24(sp)
8010174c:	3c023030 	lui	v0,0x3030
80101750:	34423030 	ori	v0,v0,0x3030
80101754:	afa2001c 	sw	v0,28(sp)
80101758:	3c023131 	lui	v0,0x3131
8010175c:	34423131 	ori	v0,v0,0x3131
80101760:	afa20020 	sw	v0,32(sp)
80101764:	8fa20058 	lw	v0,88(sp)
80101768:	3c030101 	lui	v1,0x101
8010176c:	3c040303 	lui	a0,0x303
80101770:	ac40fe00 	sw	zero,-512(v0)
80101774:	3c028013 	lui	v0,0x8013
80101778:	8c42d0a4 	lw	v0,-12124(v0)
8010177c:	3c050404 	lui	a1,0x404
80101780:	3c060505 	lui	a2,0x505
80101784:	afc20008 	sw	v0,8(s8)
80101788:	8fa20054 	lw	v0,84(sp)
8010178c:	3c070606 	lui	a3,0x606
80101790:	3c080707 	lui	t0,0x707
80101794:	afc20060 	sw	v0,96(s8)
80101798:	8fa20010 	lw	v0,16(sp)
8010179c:	3c090808 	lui	t1,0x808
801017a0:	3c0a0909 	lui	t2,0x909
801017a4:	3c0b1010 	lui	t3,0x1010
801017a8:	3c0c1111 	lui	t4,0x1111
801017ac:	3c0d1212 	lui	t5,0x1212
801017b0:	3c0e1313 	lui	t6,0x1313
801017b4:	3c0f1414 	lui	t7,0x1414
801017b8:	3c101515 	lui	s0,0x1515
801017bc:	3c111616 	lui	s1,0x1616
801017c0:	3c121717 	lui	s2,0x1717
801017c4:	3c131818 	lui	s3,0x1818
801017c8:	3c141919 	lui	s4,0x1919
801017cc:	3c152020 	lui	s5,0x2020
801017d0:	3c162121 	lui	s6,0x2121
801017d4:	3c172222 	lui	s7,0x2222
801017d8:	3c182323 	lui	t8,0x2323
801017dc:	34630101 	ori	v1,v1,0x101
801017e0:	34840303 	ori	a0,a0,0x303
801017e4:	34a50404 	ori	a1,a1,0x404
801017e8:	34c60505 	ori	a2,a2,0x505
801017ec:	34e70606 	ori	a3,a3,0x606
801017f0:	35080707 	ori	t0,t0,0x707
801017f4:	35290808 	ori	t1,t1,0x808
801017f8:	354a0909 	ori	t2,t2,0x909
801017fc:	356b1010 	ori	t3,t3,0x1010
80101800:	358c1111 	ori	t4,t4,0x1111
80101804:	35ad1212 	ori	t5,t5,0x1212
80101808:	35ce1313 	ori	t6,t6,0x1313
8010180c:	35ef1414 	ori	t7,t7,0x1414
80101810:	36101515 	ori	s0,s0,0x1515
80101814:	36311616 	ori	s1,s1,0x1616
80101818:	36521717 	ori	s2,s2,0x1717
8010181c:	36731818 	ori	s3,s3,0x1818
80101820:	36941919 	ori	s4,s4,0x1919
80101824:	36b52020 	ori	s5,s5,0x2020
80101828:	36d62121 	ori	s6,s6,0x2121
8010182c:	36f72222 	ori	s7,s7,0x2222
80101830:	37182323 	ori	t8,t8,0x2323
80101834:	afc30004 	sw	v1,4(s8)
80101838:	afc4000c 	sw	a0,12(s8)
8010183c:	afc50010 	sw	a1,16(s8)
80101840:	afc60014 	sw	a2,20(s8)
80101844:	afc70018 	sw	a3,24(s8)
80101848:	afc8001c 	sw	t0,28(s8)
8010184c:	afc90020 	sw	t1,32(s8)
80101850:	afca0024 	sw	t2,36(s8)
80101854:	afcb0028 	sw	t3,40(s8)
80101858:	afcc002c 	sw	t4,44(s8)
8010185c:	afcd0030 	sw	t5,48(s8)
80101860:	afce0034 	sw	t6,52(s8)
80101864:	afcf0038 	sw	t7,56(s8)
80101868:	afd0003c 	sw	s0,60(s8)
8010186c:	afd10040 	sw	s1,64(s8)
80101870:	afd20044 	sw	s2,68(s8)
80101874:	afd30048 	sw	s3,72(s8)
80101878:	afd4004c 	sw	s4,76(s8)
8010187c:	afd50050 	sw	s5,80(s8)
80101880:	afd60054 	sw	s6,84(s8)
80101884:	afd70058 	sw	s7,88(s8)
80101888:	afd8005c 	sw	t8,92(s8)
8010188c:	afc20064 	sw	v0,100(s8)
80101890:	8fa20014 	lw	v0,20(sp)
80101894:	afd90070 	sw	t9,112(s8)
80101898:	8fbf004c 	lw	ra,76(sp)
8010189c:	afc20068 	sw	v0,104(s8)
801018a0:	8fa20018 	lw	v0,24(sp)
801018a4:	8fb70044 	lw	s7,68(sp)
801018a8:	8fb60040 	lw	s6,64(sp)
801018ac:	afc2006c 	sw	v0,108(s8)
801018b0:	8fa20050 	lw	v0,80(sp)
801018b4:	8fb5003c 	lw	s5,60(sp)
801018b8:	8fb40038 	lw	s4,56(sp)
801018bc:	afc20074 	sw	v0,116(s8)
801018c0:	8fa2001c 	lw	v0,28(sp)
801018c4:	8fb30034 	lw	s3,52(sp)
801018c8:	8fb20030 	lw	s2,48(sp)
801018cc:	afc20078 	sw	v0,120(s8)
801018d0:	8fa20020 	lw	v0,32(sp)
801018d4:	8fb1002c 	lw	s1,44(sp)
801018d8:	8fb00028 	lw	s0,40(sp)
801018dc:	afc2007c 	sw	v0,124(s8)
801018e0:	03c01021 	move	v0,s8
801018e4:	8fbe0048 	lw	s8,72(sp)
801018e8:	03e00008 	jr	ra
801018ec:	27bd0050 	addiu	sp,sp,80
801018f0:	0c040a58 	jal	80102960 <CP0_wGetSR>
801018f4:	00000000 	nop
801018f8:	34590001 	ori	t9,v0,0x1
801018fc:	3c018013 	lui	at,0x8013
80101900:	ac3cd0a4 	sw	gp,-12124(at)
80101904:	3c018013 	lui	at,0x8013
80101908:	ac39d0a0 	sw	t9,-12128(at)
8010190c:	080405cb 	j	8010172c <init_thread_stack+0x4c>
80101910:	3c022525 	lui	v0,0x2525

80101914 <init_os_timer>:
80101914:	27bdffe8 	addiu	sp,sp,-24
80101918:	3c048010 	lui	a0,0x8010
8010191c:	248449c0 	addiu	a0,a0,18880
80101920:	afbf0010 	sw	ra,16(sp)
80101924:	0c04037e 	jal	80100df8 <printf>
80101928:	00000000 	nop
8010192c:	0c040933 	jal	801024cc <JZ_StartTicker>
80101930:	24040001 	li	a0,1
80101934:	8fbf0010 	lw	ra,16(sp)
80101938:	03e00008 	jr	ra
8010193c:	27bd0018 	addiu	sp,sp,24

80101940 <init_interrupt_control>:
80101940:	27bdffe8 	addiu	sp,sp,-24
80101944:	afbf0010 	sw	ra,16(sp)
80101948:	0c0407e7 	jal	80101f9c <interrupt_init>
8010194c:	00000000 	nop
80101950:	8fbf0010 	lw	ra,16(sp)
80101954:	03e00008 	jr	ra
80101958:	27bd0018 	addiu	sp,sp,24
8010195c:	00000000 	nop

80101960 <__flush_dcache_line>:
80101960:	bc950000 	cache	0x15,0(a0)
80101964:	0000000f 	sync
80101968:	03e00008 	jr	ra
8010196c:	00000000 	nop

80101970 <__icache_invalidate_all>:
80101970:	3c022000 	lui	v0,0x2000
80101974:	3c038010 	lui	v1,0x8010
80101978:	2463198c 	addiu	v1,v1,6540
8010197c:	00621825 	or	v1,v1,v0
80101980:	00600008 	jr	v1
80101984:	00000000 	nop
	...
80101990:	4080e000 	mtc0	zero,c0_taglo
80101994:	4080e800 	mtc0	zero,c0_taghi
80101998:	3c048000 	lui	a0,0x8000
8010199c:	3c038000 	lui	v1,0x8000
801019a0:	34843fff 	ori	a0,a0,0x3fff
801019a4:	bc680000 	cache	0x8,0(v1)
801019a8:	24630020 	addiu	v1,v1,32
801019ac:	0083102b 	sltu	v0,a0,v1
801019b0:	1040fffc 	beqz	v0,801019a4 <__icache_invalidate_all+0x34>
801019b4:	00000000 	nop
	...
801019d4:	3c028010 	lui	v0,0x8010
801019d8:	244219e8 	addiu	v0,v0,6632
801019dc:	00400008 	jr	v0
801019e0:	00000000 	nop
	...
801019ec:	40038007 	mfc0	v1,$16,7
801019f0:	00000000 	nop
801019f4:	34630002 	ori	v1,v1,0x2
801019f8:	40838007 	mtc0	v1,$16,7
801019fc:	03e00008 	jr	ra
80101a00:	00000000 	nop

80101a04 <__dcache_invalidate_all>:
80101a04:	4080e000 	mtc0	zero,c0_taglo
80101a08:	4080e800 	mtc0	zero,c0_taghi
80101a0c:	3c048000 	lui	a0,0x8000
80101a10:	3c038000 	lui	v1,0x8000
80101a14:	34843fff 	ori	a0,a0,0x3fff
80101a18:	bc690000 	cache	0x9,0(v1)
80101a1c:	24630020 	addiu	v1,v1,32
80101a20:	0083102b 	sltu	v0,a0,v1
80101a24:	1040fffc 	beqz	v0,80101a18 <__dcache_invalidate_all+0x14>
80101a28:	00000000 	nop
80101a2c:	03e00008 	jr	ra
80101a30:	00000000 	nop

80101a34 <__dcache_writeback_all>:
80101a34:	3c048000 	lui	a0,0x8000
80101a38:	3c038000 	lui	v1,0x8000
80101a3c:	34843fff 	ori	a0,a0,0x3fff
80101a40:	bc610000 	cache	0x1,0(v1)
80101a44:	24630020 	addiu	v1,v1,32
80101a48:	0083102b 	sltu	v0,a0,v1
80101a4c:	1040fffc 	beqz	v0,80101a40 <__dcache_writeback_all+0xc>
80101a50:	00000000 	nop
80101a54:	0000000f 	sync
80101a58:	03e00008 	jr	ra
80101a5c:	00000000 	nop

80101a60 <dma_cache_wback_inv>:
80101a60:	27bdffe0 	addiu	sp,sp,-32
80101a64:	2ca24000 	sltiu	v0,a1,16384
80101a68:	afbf0018 	sw	ra,24(sp)
80101a6c:	afb10014 	sw	s1,20(sp)
80101a70:	1040000f 	beqz	v0,80101ab0 <dma_cache_wback_inv+0x50>
80101a74:	afb00010 	sw	s0,16(sp)
80101a78:	00851021 	addu	v0,a0,a1
80101a7c:	2403ffe0 	li	v1,-32
80101a80:	2442ffff 	addiu	v0,v0,-1
80101a84:	00438824 	and	s1,v0,v1
80101a88:	00838024 	and	s0,a0,v1
80101a8c:	0c040658 	jal	80101960 <__flush_dcache_line>
80101a90:	02002021 	move	a0,s0
80101a94:	1611fffd 	bne	s0,s1,80101a8c <dma_cache_wback_inv+0x2c>
80101a98:	26100020 	addiu	s0,s0,32
80101a9c:	8fbf0018 	lw	ra,24(sp)
80101aa0:	8fb10014 	lw	s1,20(sp)
80101aa4:	8fb00010 	lw	s0,16(sp)
80101aa8:	03e00008 	jr	ra
80101aac:	27bd0020 	addiu	sp,sp,32
80101ab0:	0c04068d 	jal	80101a34 <__dcache_writeback_all>
80101ab4:	00000000 	nop
80101ab8:	080406a8 	j	80101aa0 <dma_cache_wback_inv+0x40>
80101abc:	8fbf0018 	lw	ra,24(sp)

80101ac0 <detect_clock>:
80101ac0:	3c05b000 	lui	a1,0xb000
80101ac4:	34a50010 	ori	a1,a1,0x10
80101ac8:	3c06b000 	lui	a2,0xb000
80101acc:	8cc20000 	lw	v0,0(a2)
80101ad0:	8ca40000 	lw	a0,0(a1)
80101ad4:	3c0200b7 	lui	v0,0xb7
80101ad8:	34421b00 	ori	v0,v0,0x1b00
80101adc:	000425c2 	srl	a0,a0,0x17
80101ae0:	70822002 	mul	a0,a0,v0
80101ae4:	8ca30000 	lw	v1,0(a1)
80101ae8:	00031c82 	srl	v1,v1,0x12
80101aec:	3063001f 	andi	v1,v1,0x1f
80101af0:	24630002 	addiu	v1,v1,2
80101af4:	14600002 	bnez	v1,80101b00 <detect_clock+0x40>
80101af8:	00000000 	nop
80101afc:	000001cd 	break	0x7
80101b00:	8cc20000 	lw	v0,0(a2)
80101b04:	3042000f 	andi	v0,v0,0xf
80101b08:	00021080 	sll	v0,v0,0x2
80101b0c:	3c058010 	lui	a1,0x8010
80101b10:	00a22821 	addu	a1,a1,v0
80101b14:	8ca54a10 	lw	a1,18960(a1)
80101b18:	3c01016e 	lui	at,0x16e
80101b1c:	34213600 	ori	at,at,0x3600
80101b20:	00242021 	addu	a0,at,a0
80101b24:	0083001b 	divu	zero,a0,v1
80101b28:	00002012 	mflo	a0
	...
80101b34:	0085001b 	divu	zero,a0,a1
80101b38:	00002012 	mflo	a0
80101b3c:	3c018013 	lui	at,0x8013
80101b40:	03e00008 	jr	ra
80101b44:	ac24d0b0 	sw	a0,-12112(at)

80101b48 <udelay>:
80101b48:	3c028013 	lui	v0,0x8013
80101b4c:	8c42d0b0 	lw	v0,-12112(v0)
80101b50:	3c03431b 	lui	v1,0x431b
80101b54:	3463de83 	ori	v1,v1,0xde83
80101b58:	00430019 	multu	v0,v1
80101b5c:	00001010 	mfhi	v0
80101b60:	000214c2 	srl	v0,v0,0x13
80101b64:	00000000 	nop
80101b68:	70822002 	mul	a0,a0,v0
80101b6c:	1480ffff 	bnez	a0,80101b6c <udelay+0x24>
80101b70:	2084ffff 	addi	a0,a0,-1
80101b74:	03e00008 	jr	ra
80101b78:	00000000 	nop

80101b7c <mdelay>:
80101b7c:	27bdffe0 	addiu	sp,sp,-32
80101b80:	afb10014 	sw	s1,20(sp)
80101b84:	afb00010 	sw	s0,16(sp)
80101b88:	afbf0018 	sw	ra,24(sp)
80101b8c:	00808821 	move	s1,a0
80101b90:	14800006 	bnez	a0,80101bac <mdelay+0x30>
80101b94:	00008021 	move	s0,zero
80101b98:	8fbf0018 	lw	ra,24(sp)
80101b9c:	8fb10014 	lw	s1,20(sp)
80101ba0:	8fb00010 	lw	s0,16(sp)
80101ba4:	03e00008 	jr	ra
80101ba8:	27bd0020 	addiu	sp,sp,32
80101bac:	240403e8 	li	a0,1000
80101bb0:	0c0406d2 	jal	80101b48 <udelay>
80101bb4:	26100001 	addiu	s0,s0,1
80101bb8:	0211102b 	sltu	v0,s0,s1
80101bbc:	1440fffc 	bnez	v0,80101bb0 <mdelay+0x34>
80101bc0:	240403e8 	li	a0,1000
80101bc4:	080406e7 	j	80101b9c <mdelay+0x20>
80101bc8:	8fbf0018 	lw	ra,24(sp)
80101bcc:	00000000 	nop

80101bd0 <exception_handler>:
80101bd0:	27bdffe0 	addiu	sp,sp,-32
80101bd4:	afb20018 	sw	s2,24(sp)
80101bd8:	afbf001c 	sw	ra,28(sp)
80101bdc:	afb10014 	sw	s1,20(sp)
80101be0:	afb00010 	sw	s0,16(sp)
80101be4:	00809021 	move	s2,a0
80101be8:	40056800 	mfc0	a1,c0_cause
80101bec:	40067000 	mfc0	a2,c0_epc
80101bf0:	3c048010 	lui	a0,0x8010
80101bf4:	24844af4 	addiu	a0,a0,19188
80101bf8:	0c04037e 	jal	80100df8 <printf>
80101bfc:	00008821 	move	s1,zero
80101c00:	00008021 	move	s0,zero
80101c04:	32220003 	andi	v0,s1,0x3
80101c08:	3c048010 	lui	a0,0x8010
80101c0c:	24844b10 	addiu	a0,a0,19216
80101c10:	10400012 	beqz	v0,80101c5c <exception_handler+0x8c>
80101c14:	26310001 	addiu	s1,s1,1
80101c18:	02121021 	addu	v0,s0,s2
80101c1c:	3c058010 	lui	a1,0x8010
80101c20:	00b02821 	addu	a1,a1,s0
80101c24:	8ca54eb0 	lw	a1,20144(a1)
80101c28:	8c460000 	lw	a2,0(v0)
80101c2c:	3c048010 	lui	a0,0x8010
80101c30:	24844b14 	addiu	a0,a0,19220
80101c34:	0c04037e 	jal	80100df8 <printf>
80101c38:	26100004 	addiu	s0,s0,4
80101c3c:	2a230020 	slti	v1,s1,32
80101c40:	1460fff1 	bnez	v1,80101c08 <exception_handler+0x38>
80101c44:	32220003 	andi	v0,s1,0x3
80101c48:	3c048010 	lui	a0,0x8010
80101c4c:	0c04037e 	jal	80100df8 <printf>
80101c50:	24844b10 	addiu	a0,a0,19216
80101c54:	08040715 	j	80101c54 <exception_handler+0x84>
80101c58:	00000000 	nop
80101c5c:	0c04037e 	jal	80100df8 <printf>
80101c60:	00000000 	nop
80101c64:	08040707 	j	80101c1c <exception_handler+0x4c>
80101c68:	02121021 	addu	v0,s0,s2

80101c6c <exception_init>:
80101c6c:	27bdffe8 	addiu	sp,sp,-24
80101c70:	3c021000 	lui	v0,0x1000
80101c74:	afbf0014 	sw	ra,20(sp)
80101c78:	afb00010 	sw	s0,16(sp)
80101c7c:	34420400 	ori	v0,v0,0x400
80101c80:	40826000 	mtc0	v0,c0_status
80101c84:	3c108010 	lui	s0,0x8010
80101c88:	26102874 	addiu	s0,s0,10356
80101c8c:	02002821 	move	a1,s0
80101c90:	3c048000 	lui	a0,0x8000
80101c94:	0c04014c 	jal	80100530 <memcpy>
80101c98:	24060020 	li	a2,32
80101c9c:	3c048000 	lui	a0,0x8000
80101ca0:	02002821 	move	a1,s0
80101ca4:	34840180 	ori	a0,a0,0x180
80101ca8:	0c04014c 	jal	80100530 <memcpy>
80101cac:	24060020 	li	a2,32
80101cb0:	3c048000 	lui	a0,0x8000
80101cb4:	02002821 	move	a1,s0
80101cb8:	34840200 	ori	a0,a0,0x200
80101cbc:	0c04014c 	jal	80100530 <memcpy>
80101cc0:	24060020 	li	a2,32
80101cc4:	0c04068d 	jal	80101a34 <__dcache_writeback_all>
80101cc8:	00000000 	nop
80101ccc:	0c04065c 	jal	80101970 <__icache_invalidate_all>
80101cd0:	00000000 	nop
80101cd4:	8fbf0014 	lw	ra,20(sp)
80101cd8:	8fb00010 	lw	s0,16(sp)
80101cdc:	03e00008 	jr	ra
80101ce0:	27bd0018 	addiu	sp,sp,24
	...

80101cf0 <gpio_init>:
80101cf0:	3c03b001 	lui	v1,0xb001
80101cf4:	3c04b001 	lui	a0,0xb001
80101cf8:	3c05b001 	lui	a1,0xb001
80101cfc:	3c020600 	lui	v0,0x600
80101d00:	34630344 	ori	v1,v1,0x344
80101d04:	34840354 	ori	a0,a0,0x354
80101d08:	34a50334 	ori	a1,a1,0x334
80101d0c:	ac620000 	sw	v0,0(v1)
80101d10:	ac820000 	sw	v0,0(a0)
80101d14:	03e00008 	jr	ra
80101d18:	aca20000 	sw	v0,0(a1)
80101d1c:	00000000 	nop

80101d20 <default_handler>:
80101d20:	03e00008 	jr	ra
80101d24:	00000000 	nop

80101d28 <enable_irq>:
80101d28:	00804021 	move	t0,a0
80101d2c:	2484ffd0 	addiu	a0,a0,-48
80101d30:	3082001f 	andi	v0,a0,0x1f
80101d34:	24070001 	li	a3,1
80101d38:	00042942 	srl	a1,a0,0x5
80101d3c:	00475004 	sllv	t2,a3,v0
80101d40:	2402001c 	li	v0,28
80101d44:	00053200 	sll	a2,a1,0x8
80101d48:	00051880 	sll	v1,a1,0x2
80101d4c:	00451023 	subu	v0,v0,a1
80101d50:	2509ffe0 	addiu	t1,t0,-32
80101d54:	2c840081 	sltiu	a0,a0,129
80101d58:	3c01b001 	lui	at,0xb001
80101d5c:	34210028 	ori	at,at,0x28
80101d60:	00263021 	addu	a2,at,a2
80101d64:	3c018013 	lui	at,0x8013
80101d68:	2421d0c4 	addiu	at,at,-12092
80101d6c:	00231821 	addu	v1,at,v1
80101d70:	00473804 	sllv	a3,a3,v0
80101d74:	10800009 	beqz	a0,80101d9c <enable_irq+0x74>
80101d78:	2d250006 	sltiu	a1,t1,6
80101d7c:	acca0000 	sw	t2,0(a2)
80101d80:	8c620000 	lw	v0,0(v1)
80101d84:	004a1025 	or	v0,v0,t2
80101d88:	ac620000 	sw	v0,0(v1)
80101d8c:	3c01b000 	lui	at,0xb000
80101d90:	ac27100c 	sw	a3,4108(at)
80101d94:	03e00008 	jr	ra
80101d98:	00000000 	nop
80101d9c:	00081140 	sll	v0,t0,0x5
80101da0:	3c03b301 	lui	v1,0xb301
80101da4:	3463fc14 	ori	v1,v1,0xfc14
80101da8:	00621821 	addu	v1,v1,v0
80101dac:	10a0000f 	beqz	a1,80101dec <enable_irq+0xc4>
80101db0:	2d020020 	sltiu	v0,t0,32
80101db4:	8c620000 	lw	v0,0(v1)
80101db8:	24040001 	li	a0,1
80101dbc:	01242004 	sllv	a0,a0,t1
80101dc0:	34420002 	ori	v0,v0,0x2
80101dc4:	ac620000 	sw	v0,0(v1)
80101dc8:	3c028013 	lui	v0,0x8013
80101dcc:	8c42d0c0 	lw	v0,-12096(v0)
80101dd0:	3c030010 	lui	v1,0x10
80101dd4:	3c01b000 	lui	at,0xb000
80101dd8:	ac23100c 	sw	v1,4108(at)
80101ddc:	00441025 	or	v0,v0,a0
80101de0:	3c018013 	lui	at,0x8013
80101de4:	03e00008 	jr	ra
80101de8:	ac22d0c0 	sw	v0,-12096(at)
80101dec:	1040ffe9 	beqz	v0,80101d94 <enable_irq+0x6c>
80101df0:	24020001 	li	v0,1
80101df4:	01021004 	sllv	v0,v0,t0
80101df8:	3c01b000 	lui	at,0xb000
80101dfc:	03e00008 	jr	ra
80101e00:	ac22100c 	sw	v0,4108(at)

80101e04 <disable_irq>:
80101e04:	2483ffd0 	addiu	v1,a0,-48
80101e08:	00032942 	srl	a1,v1,0x5
80101e0c:	3062001f 	andi	v0,v1,0x1f
80101e10:	00803821 	move	a3,a0
80101e14:	240c0001 	li	t4,1
80101e18:	004c3004 	sllv	a2,t4,v0
80101e1c:	00052200 	sll	a0,a1,0x8
80101e20:	00051080 	sll	v0,a1,0x2
80101e24:	24e9ffe0 	addiu	t1,a3,-32
80101e28:	2c630081 	sltiu	v1,v1,129
80101e2c:	3c01b001 	lui	at,0xb001
80101e30:	34210024 	ori	at,at,0x24
80101e34:	00242021 	addu	a0,at,a0
80101e38:	3c0a8013 	lui	t2,0x8013
80101e3c:	254ad0c4 	addiu	t2,t2,-12092
80101e40:	01425021 	addu	t2,t2,v0
80101e44:	00065827 	nor	t3,zero,a2
80101e48:	1060000d 	beqz	v1,80101e80 <disable_irq+0x7c>
80101e4c:	2d280006 	sltiu	t0,t1,6
80101e50:	ac860000 	sw	a2,0(a0)
80101e54:	8d420000 	lw	v0,0(t2)
80101e58:	2403001c 	li	v1,28
80101e5c:	00651823 	subu	v1,v1,a1
80101e60:	004b1024 	and	v0,v0,t3
80101e64:	006c1804 	sllv	v1,t4,v1
80101e68:	14400003 	bnez	v0,80101e78 <disable_irq+0x74>
80101e6c:	ad420000 	sw	v0,0(t2)
80101e70:	3c01b000 	lui	at,0xb000
80101e74:	ac231008 	sw	v1,4104(at)
80101e78:	03e00008 	jr	ra
80101e7c:	00000000 	nop
80101e80:	00071140 	sll	v0,a3,0x5
80101e84:	3c05b301 	lui	a1,0xb301
80101e88:	34a5fc14 	ori	a1,a1,0xfc14
80101e8c:	00a22821 	addu	a1,a1,v0
80101e90:	11000013 	beqz	t0,80101ee0 <disable_irq+0xdc>
80101e94:	2ce20020 	sltiu	v0,a3,32
80101e98:	8ca40000 	lw	a0,0(a1)
80101e9c:	2402fffd 	li	v0,-3
80101ea0:	24030001 	li	v1,1
80101ea4:	00822024 	and	a0,a0,v0
80101ea8:	aca40000 	sw	a0,0(a1)
80101eac:	3c028013 	lui	v0,0x8013
80101eb0:	8c42d0c0 	lw	v0,-12096(v0)
80101eb4:	01231804 	sllv	v1,v1,t1
80101eb8:	00031827 	nor	v1,zero,v1
80101ebc:	00431024 	and	v0,v0,v1
80101ec0:	3c018013 	lui	at,0x8013
80101ec4:	ac22d0c0 	sw	v0,-12096(at)
80101ec8:	1440ffeb 	bnez	v0,80101e78 <disable_irq+0x74>
80101ecc:	3c020010 	lui	v0,0x10
80101ed0:	3c01b000 	lui	at,0xb000
80101ed4:	ac221008 	sw	v0,4104(at)
80101ed8:	03e00008 	jr	ra
80101edc:	00000000 	nop
80101ee0:	1040ffe5 	beqz	v0,80101e78 <disable_irq+0x74>
80101ee4:	24020001 	li	v0,1
80101ee8:	00e21004 	sllv	v0,v0,a3
80101eec:	3c01b000 	lui	at,0xb000
80101ef0:	080407b6 	j	80101ed8 <disable_irq+0xd4>
80101ef4:	ac221008 	sw	v0,4104(at)

80101ef8 <ack_irq>:
80101ef8:	00803021 	move	a2,a0
80101efc:	2484ffd0 	addiu	a0,a0,-48
80101f00:	00041942 	srl	v1,a0,0x5
80101f04:	2402001c 	li	v0,28
80101f08:	24070001 	li	a3,1
80101f0c:	00431023 	subu	v0,v0,v1
80101f10:	3085001f 	andi	a1,a0,0x1f
80101f14:	00031a00 	sll	v1,v1,0x8
80101f18:	00a74804 	sllv	t1,a3,a1
80101f1c:	00474004 	sllv	t0,a3,v0
80101f20:	00c72804 	sllv	a1,a3,a2
80101f24:	24c2ffe0 	addiu	v0,a2,-32
80101f28:	2c840081 	sltiu	a0,a0,129
80101f2c:	3c01b001 	lui	at,0xb001
80101f30:	34210014 	ori	at,at,0x14
80101f34:	00231821 	addu	v1,at,v1
80101f38:	2c420007 	sltiu	v0,v0,7
80101f3c:	3c01b000 	lui	at,0xb000
80101f40:	10800006 	beqz	a0,80101f5c <ack_irq+0x64>
80101f44:	ac251010 	sw	a1,4112(at)
80101f48:	3c01b000 	lui	at,0xb000
80101f4c:	ac281010 	sw	t0,4112(at)
80101f50:	ac690000 	sw	t1,0(v1)
80101f54:	03e00008 	jr	ra
80101f58:	00000000 	nop
80101f5c:	10400005 	beqz	v0,80101f74 <ack_irq+0x7c>
80101f60:	2cc30020 	sltiu	v1,a2,32
80101f64:	3c020010 	lui	v0,0x10
80101f68:	3c01b000 	lui	at,0xb000
80101f6c:	03e00008 	jr	ra
80101f70:	ac221010 	sw	v0,4112(at)
80101f74:	1060fff7 	beqz	v1,80101f54 <ack_irq+0x5c>
80101f78:	24020017 	li	v0,23
80101f7c:	3c01b000 	lui	at,0xb000
80101f80:	10c20003 	beq	a2,v0,80101f90 <ack_irq+0x98>
80101f84:	ac251010 	sw	a1,4112(at)
80101f88:	03e00008 	jr	ra
80101f8c:	00000000 	nop
80101f90:	3c01b000 	lui	at,0xb000
80101f94:	080407e2 	j	80101f88 <ack_irq+0x90>
80101f98:	ac272028 	sw	a3,8232(at)

80101f9c <interrupt_init>:
80101f9c:	27bdffe0 	addiu	sp,sp,-32
80101fa0:	afb20018 	sw	s2,24(sp)
80101fa4:	afb10014 	sw	s1,20(sp)
80101fa8:	afb00010 	sw	s0,16(sp)
80101fac:	afbf001c 	sw	ra,28(sp)
80101fb0:	3c018013 	lui	at,0x8013
80101fb4:	ac20d0d4 	sw	zero,-12076(at)
80101fb8:	00008021 	move	s0,zero
80101fbc:	3c128010 	lui	s2,0x8010
80101fc0:	26521d20 	addiu	s2,s2,7456
80101fc4:	00008821 	move	s1,zero
80101fc8:	0c040781 	jal	80101e04 <disable_irq>
80101fcc:	02002021 	move	a0,s0
80101fd0:	3c018013 	lui	at,0x8013
80101fd4:	00310821 	addu	at,at,s1
80101fd8:	ac30d0dc 	sw	s0,-12068(at)
80101fdc:	26100001 	addiu	s0,s0,1
80101fe0:	2e0200b0 	sltiu	v0,s0,176
80101fe4:	3c018013 	lui	at,0x8013
80101fe8:	00310821 	addu	at,at,s1
80101fec:	ac32d0d8 	sw	s2,-12072(at)
80101ff0:	1440fff5 	bnez	v0,80101fc8 <interrupt_init+0x2c>
80101ff4:	26310008 	addiu	s1,s1,8
80101ff8:	8fbf001c 	lw	ra,28(sp)
80101ffc:	8fb20018 	lw	s2,24(sp)
80102000:	8fb10014 	lw	s1,20(sp)
80102004:	8fb00010 	lw	s0,16(sp)
80102008:	03e00008 	jr	ra
8010200c:	27bd0020 	addiu	sp,sp,32

80102010 <request_irq>:
80102010:	27bdffe8 	addiu	sp,sp,-24
80102014:	000448c0 	sll	t1,a0,0x3
80102018:	2c8200b1 	sltiu	v0,a0,177
8010201c:	afbf0010 	sw	ra,16(sp)
80102020:	3c078013 	lui	a3,0x8013
80102024:	24e7d0d8 	addiu	a3,a3,-12072
80102028:	00e93821 	addu	a3,a3,t1
8010202c:	1040000c 	beqz	v0,80102060 <request_irq+0x50>
80102030:	2408ffff 	li	t0,-1
80102034:	8ce30000 	lw	v1,0(a3)
80102038:	3c028010 	lui	v0,0x8010
8010203c:	24421d20 	addiu	v0,v0,7456
80102040:	14620008 	bne	v1,v0,80102064 <request_irq+0x54>
80102044:	8fbf0010 	lw	ra,16(sp)
80102048:	ace50000 	sw	a1,0(a3)
8010204c:	3c018013 	lui	at,0x8013
80102050:	00290821 	addu	at,at,t1
80102054:	0c04074a 	jal	80101d28 <enable_irq>
80102058:	ac26d0dc 	sw	a2,-12068(at)
8010205c:	00004021 	move	t0,zero
80102060:	8fbf0010 	lw	ra,16(sp)
80102064:	01001021 	move	v0,t0
80102068:	03e00008 	jr	ra
8010206c:	27bd0018 	addiu	sp,sp,24

80102070 <free_irq>:
80102070:	27bdffe8 	addiu	sp,sp,-24
80102074:	afb00010 	sw	s0,16(sp)
80102078:	afbf0014 	sw	ra,20(sp)
8010207c:	0c040781 	jal	80101e04 <disable_irq>
80102080:	00808021 	move	s0,a0
80102084:	001018c0 	sll	v1,s0,0x3
80102088:	3c018013 	lui	at,0x8013
8010208c:	00230821 	addu	at,at,v1
80102090:	ac30d0dc 	sw	s0,-12068(at)
80102094:	8fbf0014 	lw	ra,20(sp)
80102098:	8fb00010 	lw	s0,16(sp)
8010209c:	3c028010 	lui	v0,0x8010
801020a0:	24421d20 	addiu	v0,v0,7456
801020a4:	3c018013 	lui	at,0x8013
801020a8:	00230821 	addu	at,at,v1
801020ac:	ac22d0d8 	sw	v0,-12072(at)
801020b0:	03e00008 	jr	ra
801020b4:	27bd0018 	addiu	sp,sp,24

801020b8 <interrupt_handler>:
801020b8:	27bdffe8 	addiu	sp,sp,-24
801020bc:	afb00010 	sw	s0,16(sp)
801020c0:	afbf0014 	sw	ra,20(sp)
801020c4:	0c040859 	jal	80102164 <intc_irq>
801020c8:	00000000 	nop
801020cc:	00408021 	move	s0,v0
801020d0:	0440000c 	bltz	v0,80102104 <interrupt_handler+0x4c>
801020d4:	00402021 	move	a0,v0
801020d8:	0c0407be 	jal	80101ef8 <ack_irq>
801020dc:	00000000 	nop
801020e0:	001018c0 	sll	v1,s0,0x3
801020e4:	3c048013 	lui	a0,0x8013
801020e8:	00832021 	addu	a0,a0,v1
801020ec:	8c84d0dc 	lw	a0,-12068(a0)
801020f0:	3c028013 	lui	v0,0x8013
801020f4:	00431021 	addu	v0,v0,v1
801020f8:	8c42d0d8 	lw	v0,-12072(v0)
801020fc:	0040f809 	jalr	v0
80102100:	00000000 	nop
80102104:	8fbf0014 	lw	ra,20(sp)
80102108:	8fb00010 	lw	s0,16(sp)
8010210c:	03e00008 	jr	ra
80102110:	27bd0018 	addiu	sp,sp,24

80102114 <cli>:
80102114:	40026000 	mfc0	v0,c0_status
80102118:	2403fffe 	li	v1,-2
8010211c:	00431024 	and	v0,v0,v1
80102120:	03e00008 	jr	ra
80102124:	40826000 	mtc0	v0,c0_status

80102128 <mips_get_sr>:
80102128:	03e00008 	jr	ra
8010212c:	40026000 	mfc0	v0,c0_status

80102130 <sti>:
80102130:	40026000 	mfc0	v0,c0_status
80102134:	2403fffd 	li	v1,-3
80102138:	34420001 	ori	v0,v0,0x1
8010213c:	00431024 	and	v0,v0,v1
80102140:	03e00008 	jr	ra
80102144:	40826000 	mtc0	v0,c0_status

80102148 <spin_lock_irqsave>:
80102148:	40026000 	mfc0	v0,c0_status
8010214c:	2403fffe 	li	v1,-2
80102150:	00431824 	and	v1,v0,v1
80102154:	03e00008 	jr	ra
80102158:	40836000 	mtc0	v1,c0_status

8010215c <spin_unlock_irqrestore>:
8010215c:	03e00008 	jr	ra
80102160:	40846000 	mtc0	a0,c0_status

80102164 <intc_irq>:
80102164:	3c03b000 	lui	v1,0xb000
80102168:	8c631010 	lw	v1,4112(v1)
8010216c:	3c018013 	lui	at,0x8013
80102170:	ac23d0d4 	sw	v1,-12076(at)
80102174:	10600026 	beqz	v1,80102210 <intc_irq+0xac>
80102178:	2402ffff 	li	v0,-1
8010217c:	2404001f 	li	a0,31
80102180:	24050001 	li	a1,1
80102184:	00851004 	sllv	v0,a1,a0
80102188:	00621024 	and	v0,v1,v0
8010218c:	14400005 	bnez	v0,801021a4 <intc_irq+0x40>
80102190:	3c021e10 	lui	v0,0x1e10
80102194:	2484ffff 	addiu	a0,a0,-1
80102198:	0481fffb 	bgez	a0,80102188 <intc_irq+0x24>
8010219c:	00851004 	sllv	v0,a1,a0
801021a0:	3c021e10 	lui	v0,0x1e10
801021a4:	00621024 	and	v0,v1,v0
801021a8:	10400019 	beqz	v0,80102210 <intc_irq+0xac>
801021ac:	00801021 	move	v0,a0
801021b0:	2483ffec 	addiu	v1,a0,-20
801021b4:	2c620009 	sltiu	v0,v1,9
801021b8:	10400015 	beqz	v0,80102210 <intc_irq+0xac>
801021bc:	00801021 	move	v0,a0
801021c0:	00031080 	sll	v0,v1,0x2
801021c4:	3c038010 	lui	v1,0x8010
801021c8:	00621821 	addu	v1,v1,v0
801021cc:	8c634b98 	lw	v1,19352(v1)
801021d0:	00600008 	jr	v1
801021d4:	00000000 	nop
801021d8:	00002021 	move	a0,zero
801021dc:	24060001 	li	a2,1
801021e0:	3c02b302 	lui	v0,0xb302
801021e4:	8c420304 	lw	v0,772(v0)
801021e8:	00861804 	sllv	v1,a2,a0
801021ec:	00431024 	and	v0,v0,v1
801021f0:	14400005 	bnez	v0,80102208 <intc_irq+0xa4>
801021f4:	00802821 	move	a1,a0
801021f8:	24840001 	addiu	a0,a0,1
801021fc:	28820006 	slti	v0,a0,6
80102200:	1440fff7 	bnez	v0,801021e0 <intc_irq+0x7c>
80102204:	2405ffff 	li	a1,-1
80102208:	24a40020 	addiu	a0,a1,32
8010220c:	00801021 	move	v0,a0
80102210:	03e00008 	jr	ra
80102214:	00000000 	nop
80102218:	3c04b001 	lui	a0,0xb001
8010221c:	8c840380 	lw	a0,896(a0)
80102220:	2403001f 	li	v1,31
80102224:	00641007 	srav	v0,a0,v1
80102228:	30420001 	andi	v0,v0,0x1
8010222c:	14400004 	bnez	v0,80102240 <intc_irq+0xdc>
80102230:	00000000 	nop
80102234:	2463ffff 	addiu	v1,v1,-1
80102238:	0461fffa 	bgez	v1,80102224 <intc_irq+0xc0>
8010223c:	00000000 	nop
80102240:	08040883 	j	8010220c <intc_irq+0xa8>
80102244:	24640090 	addiu	a0,v1,144
80102248:	3c04b001 	lui	a0,0xb001
8010224c:	8c840280 	lw	a0,640(a0)
80102250:	2403001f 	li	v1,31
80102254:	00641007 	srav	v0,a0,v1
80102258:	30420001 	andi	v0,v0,0x1
8010225c:	14400004 	bnez	v0,80102270 <intc_irq+0x10c>
80102260:	00000000 	nop
80102264:	2463ffff 	addiu	v1,v1,-1
80102268:	0461fffa 	bgez	v1,80102254 <intc_irq+0xf0>
8010226c:	00000000 	nop
80102270:	08040883 	j	8010220c <intc_irq+0xa8>
80102274:	24640070 	addiu	a0,v1,112
80102278:	3c04b001 	lui	a0,0xb001
8010227c:	8c840180 	lw	a0,384(a0)
80102280:	2403001f 	li	v1,31
80102284:	00641007 	srav	v0,a0,v1
80102288:	30420001 	andi	v0,v0,0x1
8010228c:	14400004 	bnez	v0,801022a0 <intc_irq+0x13c>
80102290:	00000000 	nop
80102294:	2463ffff 	addiu	v1,v1,-1
80102298:	0461fffa 	bgez	v1,80102284 <intc_irq+0x120>
8010229c:	00000000 	nop
801022a0:	08040883 	j	8010220c <intc_irq+0xa8>
801022a4:	24640050 	addiu	a0,v1,80
801022a8:	3c04b001 	lui	a0,0xb001
801022ac:	8c840080 	lw	a0,128(a0)
801022b0:	2403001f 	li	v1,31
801022b4:	00641007 	srav	v0,a0,v1
801022b8:	30420001 	andi	v0,v0,0x1
801022bc:	14400004 	bnez	v0,801022d0 <intc_irq+0x16c>
801022c0:	00000000 	nop
801022c4:	2463ffff 	addiu	v1,v1,-1
801022c8:	0461fffa 	bgez	v1,801022b4 <intc_irq+0x150>
801022cc:	00000000 	nop
801022d0:	08040883 	j	8010220c <intc_irq+0xa8>
801022d4:	24640030 	addiu	a0,v1,48
	...

801022e0 <serial_init>:
801022e0:	27bdffe8 	addiu	sp,sp,-24
801022e4:	afb00010 	sw	s0,16(sp)
801022e8:	3c03b003 	lui	v1,0xb003
801022ec:	3c10b003 	lui	s0,0xb003
801022f0:	36100008 	ori	s0,s0,0x8
801022f4:	34630004 	ori	v1,v1,0x4
801022f8:	2402ffef 	li	v0,-17
801022fc:	3c05b003 	lui	a1,0xb003
80102300:	3c04b003 	lui	a0,0xb003
80102304:	a0600000 	sb	zero,0(v1)
80102308:	34a5000c 	ori	a1,a1,0xc
8010230c:	a2020000 	sb	v0,0(s0)
80102310:	34840020 	ori	a0,a0,0x20
80102314:	2403fffc 	li	v1,-4
80102318:	24020003 	li	v0,3
8010231c:	a0830000 	sb	v1,0(a0)
80102320:	a0a20000 	sb	v0,0(a1)
80102324:	afbf0014 	sw	ra,20(sp)
80102328:	0c0408d3 	jal	8010234c <serial_setbrg>
8010232c:	00000000 	nop
80102330:	24030017 	li	v1,23
80102334:	a2030000 	sb	v1,0(s0)
80102338:	8fbf0014 	lw	ra,20(sp)
8010233c:	8fb00010 	lw	s0,16(sp)
80102340:	00001021 	move	v0,zero
80102344:	03e00008 	jr	ra
80102348:	27bd0018 	addiu	sp,sp,24

8010234c <serial_setbrg>:
8010234c:	3c05b003 	lui	a1,0xb003
80102350:	34a5000c 	ori	a1,a1,0xc
80102354:	90a20000 	lbu	v0,0(a1)
80102358:	3c04b003 	lui	a0,0xb003
8010235c:	34840004 	ori	a0,a0,0x4
80102360:	304200ff 	andi	v0,v0,0xff
80102364:	34420080 	ori	v0,v0,0x80
80102368:	a0a20000 	sb	v0,0(a1)
8010236c:	2403000d 	li	v1,13
80102370:	3042007f 	andi	v0,v0,0x7f
80102374:	a0800000 	sb	zero,0(a0)
80102378:	3c01b003 	lui	at,0xb003
8010237c:	a0230000 	sb	v1,0(at)
80102380:	03e00008 	jr	ra
80102384:	a0a20000 	sb	v0,0(a1)

80102388 <serial_putc>:
80102388:	27bdffe8 	addiu	sp,sp,-24
8010238c:	00042600 	sll	a0,a0,0x18
80102390:	afb00010 	sw	s0,16(sp)
80102394:	2402000a 	li	v0,10
80102398:	00048603 	sra	s0,a0,0x18
8010239c:	1202000d 	beq	s0,v0,801023d4 <serial_putc+0x4c>
801023a0:	afbf0014 	sw	ra,20(sp)
801023a4:	24030060 	li	v1,96
801023a8:	3c02b003 	lui	v0,0xb003
801023ac:	90420014 	lbu	v0,20(v0)
801023b0:	30420060 	andi	v0,v0,0x60
801023b4:	1443fffc 	bne	v0,v1,801023a8 <serial_putc+0x20>
801023b8:	00000000 	nop
801023bc:	3c01b003 	lui	at,0xb003
801023c0:	a0300000 	sb	s0,0(at)
801023c4:	8fbf0014 	lw	ra,20(sp)
801023c8:	8fb00010 	lw	s0,16(sp)
801023cc:	03e00008 	jr	ra
801023d0:	27bd0018 	addiu	sp,sp,24
801023d4:	0c0408e2 	jal	80102388 <serial_putc>
801023d8:	2404000d 	li	a0,13
801023dc:	080408ea 	j	801023a8 <serial_putc+0x20>
801023e0:	24030060 	li	v1,96

801023e4 <serial_puts>:
801023e4:	27bdffe8 	addiu	sp,sp,-24
801023e8:	afb00010 	sw	s0,16(sp)
801023ec:	afbf0014 	sw	ra,20(sp)
801023f0:	90820000 	lbu	v0,0(a0)
801023f4:	00021600 	sll	v0,v0,0x18
801023f8:	10400009 	beqz	v0,80102420 <serial_puts+0x3c>
801023fc:	00808021 	move	s0,a0
80102400:	00402021 	move	a0,v0
80102404:	00042603 	sra	a0,a0,0x18
80102408:	0c0408e2 	jal	80102388 <serial_putc>
8010240c:	26100001 	addiu	s0,s0,1
80102410:	92020000 	lbu	v0,0(s0)
80102414:	00021600 	sll	v0,v0,0x18
80102418:	1440fffa 	bnez	v0,80102404 <serial_puts+0x20>
8010241c:	00402021 	move	a0,v0
80102420:	8fbf0014 	lw	ra,20(sp)
80102424:	8fb00010 	lw	s0,16(sp)
80102428:	03e00008 	jr	ra
8010242c:	27bd0018 	addiu	sp,sp,24

80102430 <serial_getc>:
80102430:	27bdffe8 	addiu	sp,sp,-24
80102434:	afbf0010 	sw	ra,16(sp)
80102438:	0c040918 	jal	80102460 <serial_tstc>
8010243c:	00000000 	nop
80102440:	1040fffd 	beqz	v0,80102438 <serial_getc+0x8>
80102444:	00000000 	nop
80102448:	3c02b003 	lui	v0,0xb003
8010244c:	90420000 	lbu	v0,0(v0)
80102450:	8fbf0010 	lw	ra,16(sp)
80102454:	304200ff 	andi	v0,v0,0xff
80102458:	03e00008 	jr	ra
8010245c:	27bd0018 	addiu	sp,sp,24

80102460 <serial_tstc>:
80102460:	3c02b003 	lui	v0,0xb003
80102464:	90420014 	lbu	v0,20(v0)
80102468:	03e00008 	jr	ra
8010246c:	30420001 	andi	v0,v0,0x1

80102470 <SerialInit>:
80102470:	27bdffe8 	addiu	sp,sp,-24
80102474:	afbf0010 	sw	ra,16(sp)
80102478:	0c0408b8 	jal	801022e0 <serial_init>
8010247c:	00000000 	nop
80102480:	8fbf0010 	lw	ra,16(sp)
80102484:	03e00008 	jr	ra
80102488:	27bd0018 	addiu	sp,sp,24

8010248c <SerialOutputByte>:
8010248c:	00042600 	sll	a0,a0,0x18
80102490:	27bdffe8 	addiu	sp,sp,-24
80102494:	afbf0010 	sw	ra,16(sp)
80102498:	0c0408e2 	jal	80102388 <serial_putc>
8010249c:	00042603 	sra	a0,a0,0x18
801024a0:	8fbf0010 	lw	ra,16(sp)
801024a4:	03e00008 	jr	ra
801024a8:	27bd0018 	addiu	sp,sp,24
801024ac:	00000000 	nop

801024b0 <tick_handler>:
801024b0:	27bdffe8 	addiu	sp,sp,-24
801024b4:	afbf0010 	sw	ra,16(sp)
801024b8:	0c040cc2 	jal	80103308 <advance_time_tick>
801024bc:	00000000 	nop
801024c0:	8fbf0010 	lw	ra,16(sp)
801024c4:	03e00008 	jr	ra
801024c8:	27bd0018 	addiu	sp,sp,24

801024cc <JZ_StartTicker>:
801024cc:	00044042 	srl	t0,a0,0x1
801024d0:	3c01002d 	lui	at,0x2d
801024d4:	3421c6c0 	ori	at,at,0xc6c0
801024d8:	00284021 	addu	t0,at,t0
801024dc:	0104001b 	divu	zero,t0,a0
801024e0:	27bdffe8 	addiu	sp,sp,-24
801024e4:	3c05b000 	lui	a1,0xb000
801024e8:	afbf0010 	sw	ra,16(sp)
801024ec:	34a50020 	ori	a1,a1,0x20
801024f0:	8ca20000 	lw	v0,0(a1)
801024f4:	2403fffd 	li	v1,-3
801024f8:	3c07b000 	lui	a3,0xb000
801024fc:	00431024 	and	v0,v0,v1
80102500:	aca20000 	sw	v0,0(a1)
80102504:	34e7204c 	ori	a3,a3,0x204c
80102508:	94e30000 	lhu	v1,0(a3)
8010250c:	2402ff7f 	li	v0,-129
80102510:	3c05b000 	lui	a1,0xb000
80102514:	3c06b000 	lui	a2,0xb000
80102518:	240b0001 	li	t3,1
8010251c:	00621824 	and	v1,v1,v0
80102520:	34a52034 	ori	a1,a1,0x2034
80102524:	34c62038 	ori	a2,a2,0x2038
80102528:	3c020001 	lui	v0,0x1
8010252c:	a4e30000 	sh	v1,0(a3)
80102530:	aca20000 	sw	v0,0(a1)
80102534:	accb0000 	sw	t3,0(a2)
80102538:	94e20000 	lhu	v0,0(a3)
8010253c:	2403fff8 	li	v1,-8
80102540:	3c09b000 	lui	t1,0xb000
80102544:	00431024 	and	v0,v0,v1
80102548:	34420004 	ori	v0,v0,0x4
8010254c:	a4e20000 	sh	v0,0(a3)
80102550:	94e30000 	lhu	v1,0(a3)
80102554:	2402ffc7 	li	v0,-57
80102558:	3c0ab000 	lui	t2,0xb000
8010255c:	00621824 	and	v1,v1,v0
80102560:	3c05b000 	lui	a1,0xb000
80102564:	34630008 	ori	v1,v1,0x8
80102568:	35292040 	ori	t1,t1,0x2040
8010256c:	354a2044 	ori	t2,t2,0x2044
80102570:	34a52028 	ori	a1,a1,0x2028
80102574:	00004012 	mflo	t0
80102578:	3c06b000 	lui	a2,0xb000
8010257c:	a4e30000 	sh	v1,0(a3)
80102580:	34c62014 	ori	a2,a2,0x2014
80102584:	14800002 	bnez	a0,80102590 <JZ_StartTicker+0xc4>
80102588:	00000000 	nop
8010258c:	000001cd 	break	0x7
80102590:	a5280000 	sh	t0,0(t1)
80102594:	a5480000 	sh	t0,0(t2)
80102598:	acab0000 	sw	t3,0(a1)
8010259c:	90c20000 	lbu	v0,0(a2)
801025a0:	3c058010 	lui	a1,0x8010
801025a4:	24a524b0 	addiu	a1,a1,9392
801025a8:	24040017 	li	a0,23
801025ac:	34420001 	ori	v0,v0,0x1
801025b0:	a0c20000 	sb	v0,0(a2)
801025b4:	0c040804 	jal	80102010 <request_irq>
801025b8:	00003021 	move	a2,zero
801025bc:	8fbf0010 	lw	ra,16(sp)
801025c0:	03e00008 	jr	ra
801025c4:	27bd0018 	addiu	sp,sp,24

801025c8 <JZ_StopTicker>:
801025c8:	3c03b000 	lui	v1,0xb000
801025cc:	34632018 	ori	v1,v1,0x2018
801025d0:	90620000 	lbu	v0,0(v1)
801025d4:	34420001 	ori	v0,v0,0x1
801025d8:	03e00008 	jr	ra
801025dc:	a0620000 	sb	v0,0(v1)

801025e0 <JZ_timerHandler>:
801025e0:	3c02b000 	lui	v0,0xb000
801025e4:	34422028 	ori	v0,v0,0x2028
801025e8:	24040002 	li	a0,2
801025ec:	ac440000 	sw	a0,0(v0)
801025f0:	3c038013 	lui	v1,0x8013
801025f4:	8c63d660 	lw	v1,-10656(v1)
801025f8:	24630001 	addiu	v1,v1,1
801025fc:	3c018013 	lui	at,0x8013
80102600:	03e00008 	jr	ra
80102604:	ac23d660 	sw	v1,-10656(at)

80102608 <JZ_StartTimer>:
80102608:	27bdffe8 	addiu	sp,sp,-24
8010260c:	3c04b000 	lui	a0,0xb000
80102610:	afbf0010 	sw	ra,16(sp)
80102614:	3484205c 	ori	a0,a0,0x205c
80102618:	94820000 	lhu	v0,0(a0)
8010261c:	2403ff7f 	li	v1,-129
80102620:	3c0ab000 	lui	t2,0xb000
80102624:	00431024 	and	v0,v0,v1
80102628:	a4820000 	sh	v0,0(a0)
8010262c:	94830000 	lhu	v1,0(a0)
80102630:	2402fff8 	li	v0,-8
80102634:	3c08b000 	lui	t0,0xb000
80102638:	00621824 	and	v1,v1,v0
8010263c:	34630004 	ori	v1,v1,0x4
80102640:	a4830000 	sh	v1,0(a0)
80102644:	94850000 	lhu	a1,0(a0)
80102648:	2402ffc7 	li	v0,-57
8010264c:	3c09b000 	lui	t1,0xb000
80102650:	00a22824 	and	a1,a1,v0
80102654:	3c06b000 	lui	a2,0xb000
80102658:	3c07b000 	lui	a3,0xb000
8010265c:	240c0002 	li	t4,2
80102660:	240bea60 	li	t3,-5536
80102664:	354a2034 	ori	t2,t2,0x2034
80102668:	35082038 	ori	t0,t0,0x2038
8010266c:	35292050 	ori	t1,t1,0x2050
80102670:	34e72028 	ori	a3,a3,0x2028
80102674:	34a50008 	ori	a1,a1,0x8
80102678:	34c62054 	ori	a2,a2,0x2054
8010267c:	3c020002 	lui	v0,0x2
80102680:	3c03b000 	lui	v1,0xb000
80102684:	a4850000 	sh	a1,0(a0)
80102688:	34632014 	ori	v1,v1,0x2014
8010268c:	ad420000 	sw	v0,0(t2)
80102690:	ad0c0000 	sw	t4,0(t0)
80102694:	a52b0000 	sh	t3,0(t1)
80102698:	a4cb0000 	sh	t3,0(a2)
8010269c:	acec0000 	sw	t4,0(a3)
801026a0:	90620000 	lbu	v0,0(v1)
801026a4:	3c058010 	lui	a1,0x8010
801026a8:	24a525e0 	addiu	a1,a1,9696
801026ac:	24040016 	li	a0,22
801026b0:	34420002 	ori	v0,v0,0x2
801026b4:	a0620000 	sb	v0,0(v1)
801026b8:	0c040804 	jal	80102010 <request_irq>
801026bc:	00003021 	move	a2,zero
801026c0:	8fbf0010 	lw	ra,16(sp)
801026c4:	03e00008 	jr	ra
801026c8:	27bd0018 	addiu	sp,sp,24

801026cc <JZ_StopTimer>:
801026cc:	3c04b000 	lui	a0,0xb000
801026d0:	34842018 	ori	a0,a0,0x2018
801026d4:	90820000 	lbu	v0,0(a0)
801026d8:	3c05b000 	lui	a1,0xb000
801026dc:	34a52028 	ori	a1,a1,0x2028
801026e0:	34420002 	ori	v0,v0,0x2
801026e4:	24030002 	li	v1,2
801026e8:	a0820000 	sb	v0,0(a0)
801026ec:	03e00008 	jr	ra
801026f0:	aca30000 	sw	v1,0(a1)

801026f4 <JZ_DiffTimer>:
801026f4:	8cc30000 	lw	v1,0(a2)
801026f8:	00a04021 	move	t0,a1
801026fc:	8ca50000 	lw	a1,0(a1)
80102700:	8cc70004 	lw	a3,4(a2)
80102704:	00a31023 	subu	v0,a1,v1
80102708:	0065182b 	sltu	v1,v1,a1
8010270c:	3c09000f 	lui	t1,0xf
80102710:	35294240 	ori	t1,t1,0x4240
80102714:	01224821 	addu	t1,t1,v0
80102718:	00403021 	move	a2,v0
8010271c:	10600006 	beqz	v1,80102738 <JZ_DiffTimer+0x44>
80102720:	8d020004 	lw	v0,4(t0)
80102724:	00471023 	subu	v0,v0,a3
80102728:	ac860000 	sw	a2,0(a0)
8010272c:	ac820004 	sw	v0,4(a0)
80102730:	03e00008 	jr	ra
80102734:	01001021 	move	v0,t0
80102738:	00471023 	subu	v0,v0,a3
8010273c:	2442ffff 	addiu	v0,v0,-1
80102740:	080409cb 	j	8010272c <JZ_DiffTimer+0x38>
80102744:	ac890000 	sw	t1,0(a0)

80102748 <JZ_GetTimer>:
80102748:	3c068013 	lui	a2,0x8013
8010274c:	8cc6d660 	lw	a2,-10656(a2)
80102750:	3c0551eb 	lui	a1,0x51eb
80102754:	34a5851f 	ori	a1,a1,0x851f
80102758:	00c50019 	multu	a2,a1
8010275c:	3c02b000 	lui	v0,0xb000
80102760:	34422058 	ori	v0,v0,0x2058
80102764:	94430000 	lhu	v1,0(v0)
80102768:	3c07aaaa 	lui	a3,0xaaaa
8010276c:	34e7aaab 	ori	a3,a3,0xaaab
80102770:	3062ffff 	andi	v0,v1,0xffff
80102774:	00002810 	mfhi	a1
80102778:	00052902 	srl	a1,a1,0x4
8010277c:	ac850004 	sw	a1,4(a0)
80102780:	00470019 	multu	v0,a3
80102784:	00051040 	sll	v0,a1,0x1
80102788:	00451021 	addu	v0,v0,a1
8010278c:	000210c0 	sll	v0,v0,0x3
80102790:	00451021 	addu	v0,v0,a1
80102794:	00021040 	sll	v0,v0,0x1
80102798:	00c23023 	subu	a2,a2,v0
8010279c:	00061880 	sll	v1,a2,0x2
801027a0:	00661821 	addu	v1,v1,a2
801027a4:	000318c0 	sll	v1,v1,0x3
801027a8:	00661823 	subu	v1,v1,a2
801027ac:	00031900 	sll	v1,v1,0x4
801027b0:	00661821 	addu	v1,v1,a2
801027b4:	00031940 	sll	v1,v1,0x5
801027b8:	00003810 	mfhi	a3
801027bc:	00071042 	srl	v0,a3,0x1
801027c0:	00431021 	addu	v0,v0,v1
801027c4:	03e00008 	jr	ra
801027c8:	ac820000 	sw	v0,0(a0)
801027cc:	00000000 	nop

801027d0 <_start>:
801027d0:	3c1f8010 	lui	ra,0x8010
801027d4:	27ff27d0 	addiu	ra,ra,10192
801027d8:	40809000 	mtc0	zero,c0_watchlo
801027dc:	40809800 	mtc0	zero,c0_watchhi
801027e0:	3c090080 	lui	t1,0x80
801027e4:	40896800 	mtc0	t1,c0_cause
801027e8:	3c080040 	lui	t0,0x40
801027ec:	3508fc00 	ori	t0,t0,0xfc00
801027f0:	40886000 	mtc0	t0,c0_status
801027f4:	24080003 	li	t0,3
801027f8:	40888000 	mtc0	t0,c0_config
801027fc:	3c088000 	lui	t0,0x8000
80102800:	35094000 	ori	t1,t0,0x4000
80102804:	4080e000 	mtc0	zero,c0_taglo
80102808:	4080e800 	mtc0	zero,c0_taghi

8010280c <_init_cache_loop>:
8010280c:	bd080000 	cache	0x8,0(t0)
80102810:	bd090000 	cache	0x9,0(t0)
80102814:	1509fffd 	bne	t0,t1,8010280c <_init_cache_loop>
80102818:	25080020 	addiu	t0,t0,32
8010281c:	00000000 	nop
80102820:	40088007 	mfc0	t0,$16,7
80102824:	00000000 	nop
80102828:	35080002 	ori	t0,t0,0x2
8010282c:	40888007 	mtc0	t0,$16,7
80102830:	00000000 	nop
80102834:	3c088010 	lui	t0,0x8010
80102838:	25084f30 	addiu	t0,t0,20272
8010283c:	3c098014 	lui	t1,0x8014
80102840:	2529ea90 	addiu	t1,t1,-5488

80102844 <_bss_loop>:
80102844:	ad000000 	sw	zero,0(t0)
80102848:	1509fffe 	bne	t0,t1,80102844 <_bss_loop>
8010284c:	25080004 	addiu	t0,t0,4
80102850:	3c1c8011 	lui	gp,0x8011
80102854:	279ccf20 	addiu	gp,gp,-12512
80102858:	3c1d8013 	lui	sp,0x8013
8010285c:	27bd2680 	addiu	sp,sp,9856
80102860:	27bd2000 	addiu	sp,sp,8192
80102864:	3c088010 	lui	t0,0x8010
80102868:	25080048 	addiu	t0,t0,72
8010286c:	01000008 	jr	t0
80102870:	00000000 	nop

80102874 <except_common_entry>:
80102874:	3c1a8010 	lui	k0,0x8010
80102878:	275a2884 	addiu	k0,k0,10372
8010287c:	03400008 	jr	k0
80102880:	00000000 	nop

80102884 <real_exception_entry>:
80102884:	241b007c 	li	k1,124
80102888:	401a6800 	mfc0	k0,c0_cause
8010288c:	035bd024 	and	k0,k0,k1
80102890:	101a0005 	beq	zero,k0,801028a8 <intr_handler>
80102894:	00000000 	nop
80102898:	3c1a8010 	lui	k0,0x8010
8010289c:	275a28b8 	addiu	k0,k0,10424
801028a0:	03400008 	jr	k0
801028a4:	00000000 	nop

801028a8 <intr_handler>:
801028a8:	3c1a8010 	lui	k0,0x8010
801028ac:	275a2a94 	addiu	k0,k0,10900
801028b0:	03400008 	jr	k0
801028b4:	00000000 	nop

801028b8 <except_handler>:
801028b8:	03a0d021 	move	k0,sp
801028bc:	3c1d8013 	lui	sp,0x8013
801028c0:	27bd2680 	addiu	sp,sp,9856
801028c4:	27bd1000 	addiu	sp,sp,4096
801028c8:	afa00000 	sw	zero,0(sp)
801028cc:	afa10004 	sw	at,4(sp)
801028d0:	afa20008 	sw	v0,8(sp)
801028d4:	afa3000c 	sw	v1,12(sp)
801028d8:	afa40010 	sw	a0,16(sp)
801028dc:	afa50014 	sw	a1,20(sp)
801028e0:	afa60018 	sw	a2,24(sp)
801028e4:	afa7001c 	sw	a3,28(sp)
801028e8:	afa80020 	sw	t0,32(sp)
801028ec:	afa90024 	sw	t1,36(sp)
801028f0:	afaa0028 	sw	t2,40(sp)
801028f4:	afab002c 	sw	t3,44(sp)
801028f8:	afac0030 	sw	t4,48(sp)
801028fc:	afad0034 	sw	t5,52(sp)
80102900:	afae0038 	sw	t6,56(sp)
80102904:	afaf003c 	sw	t7,60(sp)
80102908:	afb00040 	sw	s0,64(sp)
8010290c:	afb10044 	sw	s1,68(sp)
80102910:	afb20048 	sw	s2,72(sp)
80102914:	afb3004c 	sw	s3,76(sp)
80102918:	afb40050 	sw	s4,80(sp)
8010291c:	afb50054 	sw	s5,84(sp)
80102920:	afb60058 	sw	s6,88(sp)
80102924:	afb7005c 	sw	s7,92(sp)
80102928:	afb80060 	sw	t8,96(sp)
8010292c:	afb90064 	sw	t9,100(sp)
80102930:	afba0068 	sw	k0,104(sp)
80102934:	afbb006c 	sw	k1,108(sp)
80102938:	afbc0070 	sw	gp,112(sp)
8010293c:	afba0074 	sw	k0,116(sp)
80102940:	afbe0078 	sw	s8,120(sp)
80102944:	afbf007c 	sw	ra,124(sp)
80102948:	03a02021 	move	a0,sp
8010294c:	3c1a8010 	lui	k0,0x8010
80102950:	275a1bd0 	addiu	k0,k0,7120
80102954:	03400008 	jr	k0
80102958:	00000000 	nop
8010295c:	00000000 	nop

80102960 <CP0_wGetSR>:
80102960:	40026000 	mfc0	v0,c0_status
80102964:	00000040 	ssnop
80102968:	00000040 	ssnop
8010296c:	00000040 	ssnop
80102970:	03e00008 	jr	ra
80102974:	00000040 	ssnop
80102978:	00000000 	nop

8010297c <save_cpu_sr>:
8010297c:	40026000 	mfc0	v0,c0_status
80102980:	00000040 	ssnop
80102984:	00000040 	ssnop
80102988:	00000040 	ssnop
8010298c:	00000040 	ssnop
80102990:	3c01ffff 	lui	at,0xffff
80102994:	3421fffe 	ori	at,at,0xfffe
80102998:	00411824 	and	v1,v0,at
8010299c:	00000000 	nop
801029a0:	40836000 	mtc0	v1,c0_status
801029a4:	00000040 	ssnop
801029a8:	00000040 	ssnop
801029ac:	00000040 	ssnop
801029b0:	03e00008 	jr	ra
801029b4:	00000040 	ssnop
801029b8:	00000000 	nop

801029bc <restore_cpu_sr>:
801029bc:	00000000 	nop
801029c0:	40846000 	mtc0	a0,c0_status
801029c4:	00000040 	ssnop
801029c8:	00000040 	ssnop
801029cc:	00000040 	ssnop
801029d0:	03e00008 	jr	ra
801029d4:	00000040 	ssnop
801029d8:	00000000 	nop

801029dc <restore_context>:
801029dc:	3c0a8010 	lui	t2,0x8010
801029e0:	8d4a4f34 	lw	t2,20276(t2)
801029e4:	8d5d0000 	lw	sp,0(t2)
801029e8:	8fbf0000 	lw	ra,0(sp)
801029ec:	8fbe0004 	lw	s8,4(sp)
801029f0:	8fbc0008 	lw	gp,8(sp)
801029f4:	8fb9000c 	lw	t9,12(sp)
801029f8:	8fb80010 	lw	t8,16(sp)
801029fc:	8fb70014 	lw	s7,20(sp)
80102a00:	8fb60018 	lw	s6,24(sp)
80102a04:	8fb5001c 	lw	s5,28(sp)
80102a08:	8fb40020 	lw	s4,32(sp)
80102a0c:	8fb30024 	lw	s3,36(sp)
80102a10:	8fb20028 	lw	s2,40(sp)
80102a14:	8fb1002c 	lw	s1,44(sp)
80102a18:	8fb00030 	lw	s0,48(sp)
80102a1c:	8faf0034 	lw	t7,52(sp)
80102a20:	8fae0038 	lw	t6,56(sp)
80102a24:	8fad003c 	lw	t5,60(sp)
80102a28:	8fac0040 	lw	t4,64(sp)
80102a2c:	8fab0044 	lw	t3,68(sp)
80102a30:	8faa0048 	lw	t2,72(sp)
80102a34:	8fa9004c 	lw	t1,76(sp)
80102a38:	8fa80050 	lw	t0,80(sp)
80102a3c:	8fa70054 	lw	a3,84(sp)
80102a40:	8fa60058 	lw	a2,88(sp)
80102a44:	8fa5005c 	lw	a1,92(sp)
80102a48:	8fa40060 	lw	a0,96(sp)
80102a4c:	8fa30064 	lw	v1,100(sp)
80102a50:	8fa20068 	lw	v0,104(sp)
80102a54:	8fa1006c 	lw	at,108(sp)
80102a58:	8fba0070 	lw	k0,112(sp)
80102a5c:	00000000 	nop
80102a60:	409a6000 	mtc0	k0,c0_status
80102a64:	00000040 	ssnop
80102a68:	00000040 	ssnop
80102a6c:	00000040 	ssnop
80102a70:	00000040 	ssnop
80102a74:	8fba0078 	lw	k0,120(sp)
80102a78:	03400013 	mtlo	k0
80102a7c:	8fba007c 	lw	k0,124(sp)
80102a80:	03400011 	mthi	k0
80102a84:	8fba0074 	lw	k0,116(sp)
80102a88:	03400008 	jr	k0
80102a8c:	27bd0080 	addiu	sp,sp,128
80102a90:	00000000 	nop

80102a94 <irq_service_routine>:
80102a94:	401a7000 	mfc0	k0,c0_epc
80102a98:	00000040 	ssnop
80102a9c:	00000040 	ssnop
80102aa0:	00000040 	ssnop
80102aa4:	00000040 	ssnop
80102aa8:	27bdff80 	addiu	sp,sp,-128
80102aac:	afbf0000 	sw	ra,0(sp)
80102ab0:	afbe0004 	sw	s8,4(sp)
80102ab4:	afbc0008 	sw	gp,8(sp)
80102ab8:	afb9000c 	sw	t9,12(sp)
80102abc:	afb80010 	sw	t8,16(sp)
80102ac0:	afb70014 	sw	s7,20(sp)
80102ac4:	afb60018 	sw	s6,24(sp)
80102ac8:	afb5001c 	sw	s5,28(sp)
80102acc:	afb40020 	sw	s4,32(sp)
80102ad0:	afb30024 	sw	s3,36(sp)
80102ad4:	afb20028 	sw	s2,40(sp)
80102ad8:	afb1002c 	sw	s1,44(sp)
80102adc:	afb00030 	sw	s0,48(sp)
80102ae0:	afaf0034 	sw	t7,52(sp)
80102ae4:	afae0038 	sw	t6,56(sp)
80102ae8:	afad003c 	sw	t5,60(sp)
80102aec:	afac0040 	sw	t4,64(sp)
80102af0:	afab0044 	sw	t3,68(sp)
80102af4:	afaa0048 	sw	t2,72(sp)
80102af8:	afa9004c 	sw	t1,76(sp)
80102afc:	afa80050 	sw	t0,80(sp)
80102b00:	afa70054 	sw	a3,84(sp)
80102b04:	afa60058 	sw	a2,88(sp)
80102b08:	afa5005c 	sw	a1,92(sp)
80102b0c:	afa40060 	sw	a0,96(sp)
80102b10:	afa30064 	sw	v1,100(sp)
80102b14:	afa20068 	sw	v0,104(sp)
80102b18:	afa1006c 	sw	at,108(sp)
80102b1c:	401b6000 	mfc0	k1,c0_status
80102b20:	00000040 	ssnop
80102b24:	00000040 	ssnop
80102b28:	00000040 	ssnop
80102b2c:	00000040 	ssnop
80102b30:	afbb0070 	sw	k1,112(sp)
80102b34:	afba0074 	sw	k0,116(sp)
80102b38:	0000d812 	mflo	k1
80102b3c:	afbb0078 	sw	k1,120(sp)
80102b40:	0000d810 	mfhi	k1
80102b44:	afbb007c 	sw	k1,124(sp)
80102b48:	3c0a8010 	lui	t2,0x8010
80102b4c:	8d4a4f34 	lw	t2,20276(t2)
80102b50:	ad5d0000 	sw	sp,0(t2)
80102b54:	3c1b8013 	lui	k1,0x8013
80102b58:	277b2670 	addiu	k1,k1,9840
80102b5c:	40086000 	mfc0	t0,c0_status
80102b60:	00000040 	ssnop
80102b64:	00000040 	ssnop
80102b68:	00000040 	ssnop
80102b6c:	00000040 	ssnop
80102b70:	af680000 	sw	t0,0(k1)
80102b74:	40086000 	mfc0	t0,c0_status
80102b78:	00000040 	ssnop
80102b7c:	00000040 	ssnop
80102b80:	00000040 	ssnop
80102b84:	00000040 	ssnop
80102b88:	af680004 	sw	t0,4(k1)
80102b8c:	03a0d021 	move	k0,sp
80102b90:	3c1d8013 	lui	sp,0x8013
80102b94:	27bd2670 	addiu	sp,sp,9840
80102b98:	0c04082e 	jal	801020b8 <interrupt_handler>
80102b9c:	00000000 	nop
80102ba0:	0c040d22 	jal	80103488 <exit_interrupt>
80102ba4:	00000000 	nop
80102ba8:	0340e821 	move	sp,k0
80102bac:	8fbf0000 	lw	ra,0(sp)
80102bb0:	8fbe0004 	lw	s8,4(sp)
80102bb4:	8fbc0008 	lw	gp,8(sp)
80102bb8:	8fb9000c 	lw	t9,12(sp)
80102bbc:	8fb80010 	lw	t8,16(sp)
80102bc0:	8fb70014 	lw	s7,20(sp)
80102bc4:	8fb60018 	lw	s6,24(sp)
80102bc8:	8fb5001c 	lw	s5,28(sp)
80102bcc:	8fb40020 	lw	s4,32(sp)
80102bd0:	8fb30024 	lw	s3,36(sp)
80102bd4:	8fb20028 	lw	s2,40(sp)
80102bd8:	8fb1002c 	lw	s1,44(sp)
80102bdc:	8fb00030 	lw	s0,48(sp)
80102be0:	8faf0034 	lw	t7,52(sp)
80102be4:	8fae0038 	lw	t6,56(sp)
80102be8:	8fad003c 	lw	t5,60(sp)
80102bec:	8fac0040 	lw	t4,64(sp)
80102bf0:	8fab0044 	lw	t3,68(sp)
80102bf4:	8faa0048 	lw	t2,72(sp)
80102bf8:	8fa9004c 	lw	t1,76(sp)
80102bfc:	8fa80050 	lw	t0,80(sp)
80102c00:	8fa70054 	lw	a3,84(sp)
80102c04:	8fa60058 	lw	a2,88(sp)
80102c08:	8fa5005c 	lw	a1,92(sp)
80102c0c:	8fa40060 	lw	a0,96(sp)
80102c10:	8fa30064 	lw	v1,100(sp)
80102c14:	8fa20068 	lw	v0,104(sp)
80102c18:	8fa1006c 	lw	at,108(sp)
80102c1c:	8fba0070 	lw	k0,112(sp)
80102c20:	00000000 	nop
80102c24:	409a6000 	mtc0	k0,c0_status
80102c28:	00000040 	ssnop
80102c2c:	00000040 	ssnop
80102c30:	00000040 	ssnop
80102c34:	00000040 	ssnop
80102c38:	8fba0074 	lw	k0,116(sp)
80102c3c:	00000000 	nop
80102c40:	409a7000 	mtc0	k0,c0_epc
80102c44:	00000040 	ssnop
80102c48:	00000040 	ssnop
80102c4c:	00000040 	ssnop
80102c50:	00000040 	ssnop
80102c54:	8fba0078 	lw	k0,120(sp)
80102c58:	03400013 	mtlo	k0
80102c5c:	8fba007c 	lw	k0,124(sp)
80102c60:	03400011 	mthi	k0
80102c64:	27bd0080 	addiu	sp,sp,128
80102c68:	42000018 	eret
80102c6c:	00000000 	nop

80102c70 <context_switch>:
80102c70:	27bdff80 	addiu	sp,sp,-128
80102c74:	afbf0000 	sw	ra,0(sp)
80102c78:	afbe0004 	sw	s8,4(sp)
80102c7c:	afbc0008 	sw	gp,8(sp)
80102c80:	afb9000c 	sw	t9,12(sp)
80102c84:	afb80010 	sw	t8,16(sp)
80102c88:	afb70014 	sw	s7,20(sp)
80102c8c:	afb60018 	sw	s6,24(sp)
80102c90:	afb5001c 	sw	s5,28(sp)
80102c94:	afb40020 	sw	s4,32(sp)
80102c98:	afb30024 	sw	s3,36(sp)
80102c9c:	afb20028 	sw	s2,40(sp)
80102ca0:	afb1002c 	sw	s1,44(sp)
80102ca4:	afb00030 	sw	s0,48(sp)
80102ca8:	afaf0034 	sw	t7,52(sp)
80102cac:	afae0038 	sw	t6,56(sp)
80102cb0:	afad003c 	sw	t5,60(sp)
80102cb4:	afac0040 	sw	t4,64(sp)
80102cb8:	afab0044 	sw	t3,68(sp)
80102cbc:	afaa0048 	sw	t2,72(sp)
80102cc0:	afa9004c 	sw	t1,76(sp)
80102cc4:	afa80050 	sw	t0,80(sp)
80102cc8:	afa70054 	sw	a3,84(sp)
80102ccc:	afa60058 	sw	a2,88(sp)
80102cd0:	afa5005c 	sw	a1,92(sp)
80102cd4:	afa40060 	sw	a0,96(sp)
80102cd8:	afa30064 	sw	v1,100(sp)
80102cdc:	afa20068 	sw	v0,104(sp)
80102ce0:	afa1006c 	sw	at,108(sp)
80102ce4:	401b6000 	mfc0	k1,c0_status
80102ce8:	00000040 	ssnop
80102cec:	00000040 	ssnop
80102cf0:	00000040 	ssnop
80102cf4:	00000040 	ssnop
80102cf8:	afbb0070 	sw	k1,112(sp)
80102cfc:	afbf0074 	sw	ra,116(sp)
80102d00:	0000d812 	mflo	k1
80102d04:	afbb0078 	sw	k1,120(sp)
80102d08:	0000d810 	mfhi	k1
80102d0c:	afbb007c 	sw	k1,124(sp)
80102d10:	3c0a8010 	lui	t2,0x8010
80102d14:	8d4a4f34 	lw	t2,20276(t2)
80102d18:	ad5d0000 	sw	sp,0(t2)
80102d1c:	3c0b8010 	lui	t3,0x8010
80102d20:	8d6b4f44 	lw	t3,20292(t3)
80102d24:	3c018010 	lui	at,0x8010
80102d28:	ac2b4f34 	sw	t3,20276(at)
80102d2c:	8d7d0000 	lw	sp,0(t3)
80102d30:	8fbf0000 	lw	ra,0(sp)
80102d34:	8fbe0004 	lw	s8,4(sp)
80102d38:	8fbc0008 	lw	gp,8(sp)
80102d3c:	8fb9000c 	lw	t9,12(sp)
80102d40:	8fb80010 	lw	t8,16(sp)
80102d44:	8fb70014 	lw	s7,20(sp)
80102d48:	8fb60018 	lw	s6,24(sp)
80102d4c:	8fb5001c 	lw	s5,28(sp)
80102d50:	8fb40020 	lw	s4,32(sp)
80102d54:	8fb30024 	lw	s3,36(sp)
80102d58:	8fb20028 	lw	s2,40(sp)
80102d5c:	8fb1002c 	lw	s1,44(sp)
80102d60:	8fb00030 	lw	s0,48(sp)
80102d64:	8faf0034 	lw	t7,52(sp)
80102d68:	8fae0038 	lw	t6,56(sp)
80102d6c:	8fad003c 	lw	t5,60(sp)
80102d70:	8fac0040 	lw	t4,64(sp)
80102d74:	8fab0044 	lw	t3,68(sp)
80102d78:	8faa0048 	lw	t2,72(sp)
80102d7c:	8fa9004c 	lw	t1,76(sp)
80102d80:	8fa80050 	lw	t0,80(sp)
80102d84:	8fa70054 	lw	a3,84(sp)
80102d88:	8fa60058 	lw	a2,88(sp)
80102d8c:	8fa5005c 	lw	a1,92(sp)
80102d90:	8fa40060 	lw	a0,96(sp)
80102d94:	8fa30064 	lw	v1,100(sp)
80102d98:	8fa20068 	lw	v0,104(sp)
80102d9c:	8fa1006c 	lw	at,108(sp)
80102da0:	8fba0070 	lw	k0,112(sp)
80102da4:	00000000 	nop
80102da8:	409a6000 	mtc0	k0,c0_status
80102dac:	00000040 	ssnop
80102db0:	00000040 	ssnop
80102db4:	00000040 	ssnop
80102db8:	00000040 	ssnop
80102dbc:	8fba0074 	lw	k0,116(sp)
80102dc0:	00000000 	nop
80102dc4:	409a7000 	mtc0	k0,c0_epc
80102dc8:	00000040 	ssnop
80102dcc:	00000040 	ssnop
80102dd0:	00000040 	ssnop
80102dd4:	00000040 	ssnop
80102dd8:	8fba0078 	lw	k0,120(sp)
80102ddc:	03400013 	mtlo	k0
80102de0:	8fba007c 	lw	k0,124(sp)
80102de4:	03400011 	mthi	k0
80102de8:	27bd0080 	addiu	sp,sp,128
80102dec:	42000018 	eret
80102df0:	00000000 	nop

80102df4 <context_switch_in_interrupt>:
80102df4:	3c0b8010 	lui	t3,0x8010
80102df8:	8d6b4f44 	lw	t3,20292(t3)
80102dfc:	3c018010 	lui	at,0x8010
80102e00:	ac2b4f34 	sw	t3,20276(at)
80102e04:	8d7d0000 	lw	sp,0(t3)
80102e08:	8fbf0000 	lw	ra,0(sp)
80102e0c:	8fbe0004 	lw	s8,4(sp)
80102e10:	8fbc0008 	lw	gp,8(sp)
80102e14:	8fb9000c 	lw	t9,12(sp)
80102e18:	8fb80010 	lw	t8,16(sp)
80102e1c:	8fb70014 	lw	s7,20(sp)
80102e20:	8fb60018 	lw	s6,24(sp)
80102e24:	8fb5001c 	lw	s5,28(sp)
80102e28:	8fb40020 	lw	s4,32(sp)
80102e2c:	8fb30024 	lw	s3,36(sp)
80102e30:	8fb20028 	lw	s2,40(sp)
80102e34:	8fb1002c 	lw	s1,44(sp)
80102e38:	8fb00030 	lw	s0,48(sp)
80102e3c:	8faf0034 	lw	t7,52(sp)
80102e40:	8fae0038 	lw	t6,56(sp)
80102e44:	8fad003c 	lw	t5,60(sp)
80102e48:	8fac0040 	lw	t4,64(sp)
80102e4c:	8fab0044 	lw	t3,68(sp)
80102e50:	8faa0048 	lw	t2,72(sp)
80102e54:	8fa9004c 	lw	t1,76(sp)
80102e58:	8fa80050 	lw	t0,80(sp)
80102e5c:	8fa70054 	lw	a3,84(sp)
80102e60:	8fa60058 	lw	a2,88(sp)
80102e64:	8fa5005c 	lw	a1,92(sp)
80102e68:	8fa40060 	lw	a0,96(sp)
80102e6c:	8fa30064 	lw	v1,100(sp)
80102e70:	8fa20068 	lw	v0,104(sp)
80102e74:	8fa1006c 	lw	at,108(sp)
80102e78:	8fba0070 	lw	k0,112(sp)
80102e7c:	00000000 	nop
80102e80:	409a6000 	mtc0	k0,c0_status
80102e84:	00000040 	ssnop
80102e88:	00000040 	ssnop
80102e8c:	00000040 	ssnop
80102e90:	00000040 	ssnop
80102e94:	8fba0074 	lw	k0,116(sp)
80102e98:	00000000 	nop
80102e9c:	409a7000 	mtc0	k0,c0_epc
80102ea0:	00000040 	ssnop
80102ea4:	00000040 	ssnop
80102ea8:	00000040 	ssnop
80102eac:	00000040 	ssnop
80102eb0:	8fba0078 	lw	k0,120(sp)
80102eb4:	03400013 	mtlo	k0
80102eb8:	8fba007c 	lw	k0,124(sp)
80102ebc:	03400011 	mthi	k0
80102ec0:	27bd0080 	addiu	sp,sp,128
80102ec4:	42000018 	eret
	...

80102ed0 <start_curt>:
80102ed0:	27bdffd8 	addiu	sp,sp,-40
80102ed4:	afbf0020 	sw	ra,32(sp)
80102ed8:	afb3001c 	sw	s3,28(sp)
80102edc:	afb20018 	sw	s2,24(sp)
80102ee0:	afb10014 	sw	s1,20(sp)
80102ee4:	0c040a5f 	jal	8010297c <save_cpu_sr>
80102ee8:	afb00010 	sw	s0,16(sp)
80102eec:	00409021 	move	s2,v0
80102ef0:	24020001 	li	v0,1
80102ef4:	3c018010 	lui	at,0x8010
80102ef8:	0c040beb 	jal	80102fac <get_top_prio>
80102efc:	a0224f4c 	sb	v0,20300(at)
80102f00:	00028100 	sll	s0,v0,0x4
80102f04:	3c018014 	lui	at,0x8014
80102f08:	2421e6a0 	addiu	at,at,-6496
80102f0c:	00308021 	addu	s0,at,s0
80102f10:	02002021 	move	a0,s0
80102f14:	0c040ef6 	jal	80103bd8 <delete_front_list>
80102f18:	00409821 	move	s3,v0
80102f1c:	02002021 	move	a0,s0
80102f20:	0c040eb9 	jal	80103ae4 <is_empty_list>
80102f24:	00408821 	move	s1,v0
80102f28:	2631fffc 	addiu	s1,s1,-4
80102f2c:	10400004 	beqz	v0,80102f40 <start_curt+0x70>
80102f30:	02402021 	move	a0,s2
80102f34:	3c018014 	lui	at,0x8014
80102f38:	00330821 	addu	at,at,s3
80102f3c:	a020ea30 	sb	zero,-5584(at)
80102f40:	24020001 	li	v0,1
80102f44:	ae220014 	sw	v0,20(s1)
80102f48:	3c018010 	lui	at,0x8010
80102f4c:	0c040a6f 	jal	801029bc <restore_cpu_sr>
80102f50:	ac314f34 	sw	s1,20276(at)
80102f54:	0c040a77 	jal	801029dc <restore_context>
80102f58:	00000000 	nop
80102f5c:	8fbf0020 	lw	ra,32(sp)
80102f60:	8fb3001c 	lw	s3,28(sp)
80102f64:	8fb20018 	lw	s2,24(sp)
80102f68:	8fb10014 	lw	s1,20(sp)
80102f6c:	8fb00010 	lw	s0,16(sp)
80102f70:	03e00008 	jr	ra
80102f74:	27bd0028 	addiu	sp,sp,40

80102f78 <get_tid>:
80102f78:	00002021 	move	a0,zero
80102f7c:	3c058014 	lui	a1,0x8014
80102f80:	24a5e8a0 	addiu	a1,a1,-5984
80102f84:	8ca20000 	lw	v0,0(a1)
80102f88:	00803021 	move	a2,a0
80102f8c:	24840001 	addiu	a0,a0,1
80102f90:	24a50004 	addiu	a1,a1,4
80102f94:	10400003 	beqz	v0,80102fa4 <get_tid+0x2c>
80102f98:	28830064 	slti	v1,a0,100
80102f9c:	1460fff9 	bnez	v1,80102f84 <get_tid+0xc>
80102fa0:	2406ffff 	li	a2,-1
80102fa4:	03e00008 	jr	ra
80102fa8:	00c01021 	move	v0,a2

80102fac <get_top_prio>:
80102fac:	00002821 	move	a1,zero
80102fb0:	24070001 	li	a3,1
80102fb4:	3c048014 	lui	a0,0x8014
80102fb8:	2484ea30 	addiu	a0,a0,-5584
80102fbc:	90820000 	lbu	v0,0(a0)
80102fc0:	30a600ff 	andi	a2,a1,0xff
80102fc4:	24a50001 	addiu	a1,a1,1
80102fc8:	24840001 	addiu	a0,a0,1
80102fcc:	10470003 	beq	v0,a3,80102fdc <get_top_prio+0x30>
80102fd0:	28a30020 	slti	v1,a1,32
80102fd4:	1460fff9 	bnez	v1,80102fbc <get_top_prio+0x10>
80102fd8:	24060020 	li	a2,32
80102fdc:	03e00008 	jr	ra
80102fe0:	00c01021 	move	v0,a2

80102fe4 <init_curt>:
80102fe4:	27bdffd8 	addiu	sp,sp,-40
80102fe8:	afb20020 	sw	s2,32(sp)
80102fec:	afb1001c 	sw	s1,28(sp)
80102ff0:	afb00018 	sw	s0,24(sp)
80102ff4:	afbf0024 	sw	ra,36(sp)
80102ff8:	3c128014 	lui	s2,0x8014
80102ffc:	2652e6a0 	addiu	s2,s2,-6496
80103000:	3c118014 	lui	s1,0x8014
80103004:	2631ea30 	addiu	s1,s1,-5584
80103008:	2410001f 	li	s0,31
8010300c:	02402021 	move	a0,s2
80103010:	2610ffff 	addiu	s0,s0,-1
80103014:	a2200000 	sb	zero,0(s1)
80103018:	0c040ea5 	jal	80103a94 <init_list>
8010301c:	26520010 	addiu	s2,s2,16
80103020:	0601fffa 	bgez	s0,8010300c <init_curt+0x28>
80103024:	26310001 	addiu	s1,s1,1
80103028:	3c048013 	lui	a0,0x8013
8010302c:	24846680 	addiu	a0,a0,26240
80103030:	0c040ea5 	jal	80103a94 <init_list>
80103034:	24100063 	li	s0,99
80103038:	3c048014 	lui	a0,0x8014
8010303c:	0c040ea5 	jal	80103a94 <init_list>
80103040:	2484e690 	addiu	a0,a0,-6512
80103044:	3c048014 	lui	a0,0x8014
80103048:	0c040ea5 	jal	80103a94 <init_list>
8010304c:	2484ea80 	addiu	a0,a0,-5504
80103050:	3c028014 	lui	v0,0x8014
80103054:	2442e8a0 	addiu	v0,v0,-5984
80103058:	2610ffff 	addiu	s0,s0,-1
8010305c:	ac400000 	sw	zero,0(v0)
80103060:	0601fffd 	bgez	s0,80103058 <init_curt+0x74>
80103064:	24420004 	addiu	v0,v0,4
80103068:	2403001f 	li	v1,31
8010306c:	3c048014 	lui	a0,0x8014
80103070:	2484ea50 	addiu	a0,a0,-5552
80103074:	3c058014 	lui	a1,0x8014
80103078:	24a5e68c 	addiu	a1,a1,-6516
8010307c:	3c068010 	lui	a2,0x8010
80103080:	24c634dc 	addiu	a2,a2,13532
80103084:	3c078010 	lui	a3,0x8010
80103088:	24e74c40 	addiu	a3,a3,19520
8010308c:	24020020 	li	v0,32
80103090:	afa30010 	sw	v1,16(sp)
80103094:	afa00014 	sw	zero,20(sp)
80103098:	3c018010 	lui	at,0x8010
8010309c:	ac224f38 	sw	v0,20280(at)
801030a0:	3c018010 	lui	at,0x8010
801030a4:	a0204f4c 	sb	zero,20300(at)
801030a8:	3c018010 	lui	at,0x8010
801030ac:	ac204f48 	sw	zero,20296(at)
801030b0:	3c018010 	lui	at,0x8010
801030b4:	ac204f3c 	sw	zero,20284(at)
801030b8:	3c018010 	lui	at,0x8010
801030bc:	ac204f40 	sw	zero,20288(at)
801030c0:	3c018010 	lui	at,0x8010
801030c4:	ac204f30 	sw	zero,20272(at)
801030c8:	3c018010 	lui	at,0x8010
801030cc:	ac204f34 	sw	zero,20276(at)
801030d0:	3c018010 	lui	at,0x8010
801030d4:	0c040d5c 	jal	80103570 <thread_create>
801030d8:	ac204f44 	sw	zero,20292(at)
801030dc:	8fbf0024 	lw	ra,36(sp)
801030e0:	8fb20020 	lw	s2,32(sp)
801030e4:	8fb1001c 	lw	s1,28(sp)
801030e8:	8fb00018 	lw	s0,24(sp)
801030ec:	03e00008 	jr	ra
801030f0:	27bd0028 	addiu	sp,sp,40

801030f4 <schedule>:
801030f4:	27bdffd8 	addiu	sp,sp,-40
801030f8:	afbf0020 	sw	ra,32(sp)
801030fc:	afb3001c 	sw	s3,28(sp)
80103100:	afb10014 	sw	s1,20(sp)
80103104:	afb00010 	sw	s0,16(sp)
80103108:	afb20018 	sw	s2,24(sp)
8010310c:	0c040a5f 	jal	8010297c <save_cpu_sr>
80103110:	00808021 	move	s0,a0
80103114:	0c040beb 	jal	80102fac <get_top_prio>
80103118:	00409821 	move	s3,v0
8010311c:	1600003d 	bnez	s0,80103214 <schedule+0x120>
80103120:	00408821 	move	s1,v0
80103124:	3c038010 	lui	v1,0x8010
80103128:	8c634f34 	lw	v1,20276(v1)
8010312c:	90620018 	lbu	v0,24(v1)
80103130:	0051102a 	slt	v0,v0,s1
80103134:	14400035 	bnez	v0,8010320c <schedule+0x118>
80103138:	2402000a 	li	v0,10
8010313c:	00118100 	sll	s0,s1,0x4
80103140:	3c018014 	lui	at,0x8014
80103144:	2421e6a0 	addiu	at,at,-6496
80103148:	00308021 	addu	s0,at,s0
8010314c:	0c040ef6 	jal	80103bd8 <delete_front_list>
80103150:	02002021 	move	a0,s0
80103154:	02002021 	move	a0,s0
80103158:	0c040eb9 	jal	80103ae4 <is_empty_list>
8010315c:	00409021 	move	s2,v0
80103160:	10400004 	beqz	v0,80103174 <schedule+0x80>
80103164:	00000000 	nop
80103168:	3c018014 	lui	at,0x8014
8010316c:	00310821 	addu	at,at,s1
80103170:	a020ea30 	sb	zero,-5584(at)
80103174:	3c038010 	lui	v1,0x8010
80103178:	8c634f34 	lw	v1,20276(v1)
8010317c:	2646fffc 	addiu	a2,s2,-4
80103180:	24100001 	li	s0,1
80103184:	90640018 	lbu	a0,24(v1)
80103188:	2402000a 	li	v0,10
8010318c:	00042100 	sll	a0,a0,0x4
80103190:	acc2001c 	sw	v0,28(a2)
80103194:	acd00014 	sw	s0,20(a2)
80103198:	3c018014 	lui	at,0x8014
8010319c:	2421e6a0 	addiu	at,at,-6496
801031a0:	00242021 	addu	a0,at,a0
801031a4:	ac600014 	sw	zero,20(v1)
801031a8:	3c018010 	lui	at,0x8010
801031ac:	ac264f44 	sw	a2,20292(at)
801031b0:	0c040ee4 	jal	80103b90 <insert_back_list>
801031b4:	24650004 	addiu	a1,v1,4
801031b8:	3c038010 	lui	v1,0x8010
801031bc:	8c634f34 	lw	v1,20276(v1)
801031c0:	3c028010 	lui	v0,0x8010
801031c4:	8c424f40 	lw	v0,20288(v0)
801031c8:	90640018 	lbu	a0,24(v1)
801031cc:	24420001 	addiu	v0,v0,1
801031d0:	3c018010 	lui	at,0x8010
801031d4:	ac224f40 	sw	v0,20288(at)
801031d8:	3c018014 	lui	at,0x8014
801031dc:	00240821 	addu	at,at,a0
801031e0:	0c040b7d 	jal	80102df4 <context_switch_in_interrupt>
801031e4:	a030ea30 	sb	s0,-5584(at)
801031e8:	0c040a6f 	jal	801029bc <restore_cpu_sr>
801031ec:	02602021 	move	a0,s3
801031f0:	8fbf0020 	lw	ra,32(sp)
801031f4:	8fb3001c 	lw	s3,28(sp)
801031f8:	8fb20018 	lw	s2,24(sp)
801031fc:	8fb10014 	lw	s1,20(sp)
80103200:	8fb00010 	lw	s0,16(sp)
80103204:	03e00008 	jr	ra
80103208:	27bd0028 	addiu	sp,sp,40
8010320c:	08040c7a 	j	801031e8 <schedule+0xf4>
80103210:	ac62001c 	sw	v0,28(v1)
80103214:	24020001 	li	v0,1
80103218:	1602fff3 	bne	s0,v0,801031e8 <schedule+0xf4>
8010321c:	00000000 	nop
80103220:	3c038010 	lui	v1,0x8010
80103224:	8c634f34 	lw	v1,20276(v1)
80103228:	8c620014 	lw	v0,20(v1)
8010322c:	10500030 	beq	v0,s0,801032f0 <schedule+0x1fc>
80103230:	00118100 	sll	s0,s1,0x4
80103234:	3c018014 	lui	at,0x8014
80103238:	2421e6a0 	addiu	at,at,-6496
8010323c:	00308021 	addu	s0,at,s0
80103240:	0c040ef6 	jal	80103bd8 <delete_front_list>
80103244:	02002021 	move	a0,s0
80103248:	02002021 	move	a0,s0
8010324c:	0c040eb9 	jal	80103ae4 <is_empty_list>
80103250:	00409021 	move	s2,v0
80103254:	10400004 	beqz	v0,80103268 <schedule+0x174>
80103258:	00000000 	nop
8010325c:	3c018014 	lui	at,0x8014
80103260:	00310821 	addu	at,at,s1
80103264:	a020ea30 	sb	zero,-5584(at)
80103268:	3c068010 	lui	a2,0x8010
8010326c:	8cc64f34 	lw	a2,20276(a2)
80103270:	2642fffc 	addiu	v0,s2,-4
80103274:	24040001 	li	a0,1
80103278:	ac440014 	sw	a0,20(v0)
8010327c:	8cd00014 	lw	s0,20(a2)
80103280:	2403000a 	li	v1,10
80103284:	ac43001c 	sw	v1,28(v0)
80103288:	3c018010 	lui	at,0x8010
8010328c:	ac224f44 	sw	v0,20292(at)
80103290:	12040009 	beq	s0,a0,801032b8 <schedule+0x1c4>
80103294:	24c50004 	addiu	a1,a2,4
80103298:	3c028010 	lui	v0,0x8010
8010329c:	8c424f40 	lw	v0,20288(v0)
801032a0:	24420001 	addiu	v0,v0,1
801032a4:	3c018010 	lui	at,0x8010
801032a8:	0c040b1c 	jal	80102c70 <context_switch>
801032ac:	ac224f40 	sw	v0,20288(at)
801032b0:	08040c7a 	j	801031e8 <schedule+0xf4>
801032b4:	00000000 	nop
801032b8:	90c40018 	lbu	a0,24(a2)
801032bc:	00042100 	sll	a0,a0,0x4
801032c0:	3c018014 	lui	at,0x8014
801032c4:	2421e6a0 	addiu	at,at,-6496
801032c8:	00242021 	addu	a0,at,a0
801032cc:	0c040ee4 	jal	80103b90 <insert_back_list>
801032d0:	acc00014 	sw	zero,20(a2)
801032d4:	3c028010 	lui	v0,0x8010
801032d8:	8c424f34 	lw	v0,20276(v0)
801032dc:	90430018 	lbu	v1,24(v0)
801032e0:	3c018014 	lui	at,0x8014
801032e4:	00230821 	addu	at,at,v1
801032e8:	08040ca6 	j	80103298 <schedule+0x1a4>
801032ec:	a030ea30 	sb	s0,-5584(at)
801032f0:	90620018 	lbu	v0,24(v1)
801032f4:	0051102a 	slt	v0,v0,s1
801032f8:	1040ffce 	beqz	v0,80103234 <schedule+0x140>
801032fc:	00000000 	nop
80103300:	08040c83 	j	8010320c <schedule+0x118>
80103304:	2402000a 	li	v0,10

80103308 <advance_time_tick>:
80103308:	27bdffd8 	addiu	sp,sp,-40
8010330c:	afb40020 	sw	s4,32(sp)
80103310:	afb20018 	sw	s2,24(sp)
80103314:	afbf0024 	sw	ra,36(sp)
80103318:	afb3001c 	sw	s3,28(sp)
8010331c:	afb10014 	sw	s1,20(sp)
80103320:	0c040a5f 	jal	8010297c <save_cpu_sr>
80103324:	afb00010 	sw	s0,16(sp)
80103328:	0040a021 	move	s4,v0
8010332c:	3c028010 	lui	v0,0x8010
80103330:	8c424f3c 	lw	v0,20284(v0)
80103334:	3c048013 	lui	a0,0x8013
80103338:	24846680 	addiu	a0,a0,26240
8010333c:	24420001 	addiu	v0,v0,1
80103340:	3c018010 	lui	at,0x8010
80103344:	ac224f3c 	sw	v0,20284(at)
80103348:	0c040eb9 	jal	80103ae4 <is_empty_list>
8010334c:	00009021 	move	s2,zero
80103350:	10400010 	beqz	v0,80103394 <advance_time_tick+0x8c>
80103354:	00000000 	nop
80103358:	3c038010 	lui	v1,0x8010
8010335c:	8c634f34 	lw	v1,20276(v1)
80103360:	02802021 	move	a0,s4
80103364:	8c62001c 	lw	v0,28(v1)
80103368:	2442ffff 	addiu	v0,v0,-1
8010336c:	0c040a6f 	jal	801029bc <restore_cpu_sr>
80103370:	ac62001c 	sw	v0,28(v1)
80103374:	8fbf0024 	lw	ra,36(sp)
80103378:	8fb40020 	lw	s4,32(sp)
8010337c:	8fb3001c 	lw	s3,28(sp)
80103380:	8fb20018 	lw	s2,24(sp)
80103384:	8fb10014 	lw	s1,20(sp)
80103388:	8fb00010 	lw	s0,16(sp)
8010338c:	03e00008 	jr	ra
80103390:	27bd0028 	addiu	sp,sp,40
80103394:	3c048013 	lui	a0,0x8013
80103398:	0c040eab 	jal	80103aac <begin_list>
8010339c:	24846680 	addiu	a0,a0,26240
801033a0:	3c048013 	lui	a0,0x8013
801033a4:	24846680 	addiu	a0,a0,26240
801033a8:	00408821 	move	s1,v0
801033ac:	26530004 	addiu	s3,s2,4
801033b0:	0c040eaf 	jal	80103abc <end_list>
801033b4:	2450fffc 	addiu	s0,v0,-4
801033b8:	1222001d 	beq	s1,v0,80103430 <advance_time_tick+0x128>
801033bc:	02602021 	move	a0,s3
801033c0:	8e020020 	lw	v0,32(s0)
801033c4:	2442ffff 	addiu	v0,v0,-1
801033c8:	12400013 	beqz	s2,80103418 <advance_time_tick+0x110>
801033cc:	ae020020 	sw	v0,32(s0)
801033d0:	0c040ef0 	jal	80103bc0 <delete_list>
801033d4:	00000000 	nop
801033d8:	92440018 	lbu	a0,24(s2)
801033dc:	2402000a 	li	v0,10
801033e0:	ae42001c 	sw	v0,28(s2)
801033e4:	00042100 	sll	a0,a0,0x4
801033e8:	ae400014 	sw	zero,20(s2)
801033ec:	3c018014 	lui	at,0x8014
801033f0:	2421e6a0 	addiu	at,at,-6496
801033f4:	00242021 	addu	a0,at,a0
801033f8:	0c040ee4 	jal	80103b90 <insert_back_list>
801033fc:	02602821 	move	a1,s3
80103400:	92430018 	lbu	v1,24(s2)
80103404:	24020001 	li	v0,1
80103408:	00009021 	move	s2,zero
8010340c:	3c018014 	lui	at,0x8014
80103410:	00230821 	addu	at,at,v1
80103414:	a022ea30 	sb	v0,-5584(at)
80103418:	8e020020 	lw	v0,32(s0)
8010341c:	02202021 	move	a0,s1
80103420:	0c040ead 	jal	80103ab4 <next_list>
80103424:	0202900a 	movz	s2,s0,v0
80103428:	08040ce8 	j	801033a0 <advance_time_tick+0x98>
8010342c:	00000000 	nop
80103430:	1240ffc9 	beqz	s2,80103358 <advance_time_tick+0x50>
80103434:	00000000 	nop
80103438:	0c040ef0 	jal	80103bc0 <delete_list>
8010343c:	00000000 	nop
80103440:	92440018 	lbu	a0,24(s2)
80103444:	2402000a 	li	v0,10
80103448:	ae42001c 	sw	v0,28(s2)
8010344c:	00042100 	sll	a0,a0,0x4
80103450:	3c018014 	lui	at,0x8014
80103454:	2421e6a0 	addiu	at,at,-6496
80103458:	00242021 	addu	a0,at,a0
8010345c:	ae400014 	sw	zero,20(s2)
80103460:	0c040ee4 	jal	80103b90 <insert_back_list>
80103464:	02602821 	move	a1,s3
80103468:	92430018 	lbu	v1,24(s2)
8010346c:	24020001 	li	v0,1
80103470:	3c018014 	lui	at,0x8014
80103474:	00230821 	addu	at,at,v1
80103478:	08040cd6 	j	80103358 <advance_time_tick+0x50>
8010347c:	a022ea30 	sb	v0,-5584(at)

80103480 <enter_interrupt>:
80103480:	03e00008 	jr	ra
80103484:	00000000 	nop

80103488 <exit_interrupt>:
80103488:	3c028010 	lui	v0,0x8010
8010348c:	8c424f48 	lw	v0,20296(v0)
80103490:	27bdffe8 	addiu	sp,sp,-24
80103494:	afbf0010 	sw	ra,16(sp)
80103498:	3c058010 	lui	a1,0x8010
8010349c:	8ca54f34 	lw	a1,20276(a1)
801034a0:	00002021 	move	a0,zero
801034a4:	18400003 	blez	v0,801034b4 <exit_interrupt+0x2c>
801034a8:	2443ffff 	addiu	v1,v0,-1
801034ac:	3c018010 	lui	at,0x8010
801034b0:	ac234f48 	sw	v1,20296(at)
801034b4:	8ca2001c 	lw	v0,28(a1)
801034b8:	10400004 	beqz	v0,801034cc <exit_interrupt+0x44>
801034bc:	00000000 	nop
801034c0:	8fbf0010 	lw	ra,16(sp)
801034c4:	03e00008 	jr	ra
801034c8:	27bd0018 	addiu	sp,sp,24
801034cc:	0c040c3d 	jal	801030f4 <schedule>
801034d0:	00000000 	nop
801034d4:	08040d31 	j	801034c4 <exit_interrupt+0x3c>
801034d8:	8fbf0010 	lw	ra,16(sp)

801034dc <idle_thread_func>:
801034dc:	27bdffe8 	addiu	sp,sp,-24
801034e0:	3c048010 	lui	a0,0x8010
801034e4:	24844c4c 	addiu	a0,a0,19532
801034e8:	afbf0014 	sw	ra,20(sp)
801034ec:	0c04037e 	jal	80100df8 <printf>
801034f0:	afb00010 	sw	s0,16(sp)
801034f4:	0c040a5f 	jal	8010297c <save_cpu_sr>
801034f8:	00000000 	nop
801034fc:	3c048014 	lui	a0,0x8014
80103500:	2484ea80 	addiu	a0,a0,-5504
80103504:	0c040eb9 	jal	80103ae4 <is_empty_list>
80103508:	00408021 	move	s0,v0
8010350c:	3c048014 	lui	a0,0x8014
80103510:	1040000a 	beqz	v0,8010353c <idle_thread_func+0x60>
80103514:	2484ea80 	addiu	a0,a0,-5504
80103518:	0c040a6f 	jal	801029bc <restore_cpu_sr>
8010351c:	02002021 	move	a0,s0
80103520:	3c048010 	lui	a0,0x8010
80103524:	0c04037e 	jal	80100df8 <printf>
80103528:	24844c60 	addiu	a0,a0,19552
8010352c:	0c040de2 	jal	80103788 <thread_yield>
80103530:	00000000 	nop
80103534:	08040d3d 	j	801034f4 <idle_thread_func+0x18>
80103538:	00000000 	nop
8010353c:	0c040ef6 	jal	80103bd8 <delete_front_list>
80103540:	00000000 	nop
80103544:	8c430008 	lw	v1,8(v0)
80103548:	3c028010 	lui	v0,0x8010
8010354c:	8c424f30 	lw	v0,20272(v0)
80103550:	00031880 	sll	v1,v1,0x2
80103554:	2442ffff 	addiu	v0,v0,-1
80103558:	3c018014 	lui	at,0x8014
8010355c:	00230821 	addu	at,at,v1
80103560:	ac20e8a0 	sw	zero,-5984(at)
80103564:	3c018010 	lui	at,0x8010
80103568:	08040d46 	j	80103518 <idle_thread_func+0x3c>
8010356c:	ac224f30 	sw	v0,20272(at)

80103570 <thread_create>:
80103570:	27bdffd0 	addiu	sp,sp,-48
80103574:	afb40020 	sw	s4,32(sp)
80103578:	afb3001c 	sw	s3,28(sp)
8010357c:	afb20018 	sw	s2,24(sp)
80103580:	afb10014 	sw	s1,20(sp)
80103584:	afb00010 	sw	s0,16(sp)
80103588:	afbf0028 	sw	ra,40(sp)
8010358c:	afb50024 	sw	s5,36(sp)
80103590:	00808821 	move	s1,a0
80103594:	00a08021 	move	s0,a1
80103598:	00c09821 	move	s3,a2
8010359c:	00e0a021 	move	s4,a3
801035a0:	10800009 	beqz	a0,801035c8 <thread_create+0x58>
801035a4:	93b20040 	lbu	s2,64(sp)
801035a8:	10a00008 	beqz	a1,801035cc <thread_create+0x5c>
801035ac:	2403ffff 	li	v1,-1
801035b0:	10c00006 	beqz	a2,801035cc <thread_create+0x5c>
801035b4:	00000000 	nop
801035b8:	10e00004 	beqz	a3,801035cc <thread_create+0x5c>
801035bc:	2e420020 	sltiu	v0,s2,32
801035c0:	1440000c 	bnez	v0,801035f4 <thread_create+0x84>
801035c4:	00000000 	nop
801035c8:	2403ffff 	li	v1,-1
801035cc:	8fbf0028 	lw	ra,40(sp)
801035d0:	8fb50024 	lw	s5,36(sp)
801035d4:	8fb40020 	lw	s4,32(sp)
801035d8:	8fb3001c 	lw	s3,28(sp)
801035dc:	8fb20018 	lw	s2,24(sp)
801035e0:	8fb10014 	lw	s1,20(sp)
801035e4:	8fb00010 	lw	s0,16(sp)
801035e8:	00601021 	move	v0,v1
801035ec:	03e00008 	jr	ra
801035f0:	27bd0030 	addiu	sp,sp,48
801035f4:	0c040bde 	jal	80102f78 <get_tid>
801035f8:	00000000 	nop
801035fc:	0040a821 	move	s5,v0
80103600:	2402ffff 	li	v0,-1
80103604:	12a2fff1 	beq	s5,v0,801035cc <thread_create+0x5c>
80103608:	2403ffff 	li	v1,-1
8010360c:	8fa50044 	lw	a1,68(sp)
80103610:	02003021 	move	a2,s0
80103614:	02602021 	move	a0,s3
80103618:	0c0405b8 	jal	801016e0 <init_thread_stack>
8010361c:	ae35000c 	sw	s5,12(s1)
80103620:	ae220000 	sw	v0,0(s1)
80103624:	2402000a 	li	v0,10
80103628:	ae340010 	sw	s4,16(s1)
8010362c:	ae22001c 	sw	v0,28(s1)
80103630:	a2320018 	sb	s2,24(s1)
80103634:	ae200020 	sw	zero,32(s1)
80103638:	0c040a5f 	jal	8010297c <save_cpu_sr>
8010363c:	ae200014 	sw	zero,20(s1)
80103640:	3c068010 	lui	a2,0x8010
80103644:	8cc64f30 	lw	a2,20272(a2)
80103648:	00122100 	sll	a0,s2,0x4
8010364c:	24030001 	li	v1,1
80103650:	24c60001 	addiu	a2,a2,1
80103654:	00408021 	move	s0,v0
80103658:	3c018014 	lui	at,0x8014
8010365c:	2421e6a0 	addiu	at,at,-6496
80103660:	00242021 	addu	a0,at,a0
80103664:	00151080 	sll	v0,s5,0x2
80103668:	3c018014 	lui	at,0x8014
8010366c:	00220821 	addu	at,at,v0
80103670:	ac31e8a0 	sw	s1,-5984(at)
80103674:	3c018014 	lui	at,0x8014
80103678:	00320821 	addu	at,at,s2
8010367c:	a023ea30 	sb	v1,-5584(at)
80103680:	3c018010 	lui	at,0x8010
80103684:	ac264f30 	sw	a2,20272(at)
80103688:	0c040ee4 	jal	80103b90 <insert_back_list>
8010368c:	26250004 	addiu	a1,s1,4
80103690:	0c040a6f 	jal	801029bc <restore_cpu_sr>
80103694:	02002021 	move	a0,s0
80103698:	3c038010 	lui	v1,0x8010
8010369c:	90634f4c 	lbu	v1,20300(v1)
801036a0:	24020001 	li	v0,1
801036a4:	10620007 	beq	v1,v0,801036c4 <thread_create+0x154>
801036a8:	00000000 	nop
801036ac:	3c048010 	lui	a0,0x8010
801036b0:	24844cb0 	addiu	a0,a0,19632
801036b4:	0c04037e 	jal	80100df8 <printf>
801036b8:	02402821 	move	a1,s2
801036bc:	08040d73 	j	801035cc <thread_create+0x5c>
801036c0:	02a01821 	move	v1,s5
801036c4:	3c038010 	lui	v1,0x8010
801036c8:	8c634f34 	lw	v1,20276(v1)
801036cc:	90620018 	lbu	v0,24(v1)
801036d0:	0242102b 	sltu	v0,s2,v0
801036d4:	1040fff5 	beqz	v0,801036ac <thread_create+0x13c>
801036d8:	00000000 	nop
801036dc:	0c040c3d 	jal	801030f4 <schedule>
801036e0:	24040001 	li	a0,1
801036e4:	08040dab 	j	801036ac <thread_create+0x13c>
801036e8:	00000000 	nop

801036ec <thread_delete>:
801036ec:	27bdffe0 	addiu	sp,sp,-32
801036f0:	2c820065 	sltiu	v0,a0,101
801036f4:	afb00010 	sw	s0,16(sp)
801036f8:	afbf0018 	sw	ra,24(sp)
801036fc:	afb10014 	sw	s1,20(sp)
80103700:	00808021 	move	s0,a0
80103704:	00041880 	sll	v1,a0,0x2
80103708:	10400019 	beqz	v0,80103770 <thread_delete+0x84>
8010370c:	2406ffff 	li	a2,-1
80103710:	3c028014 	lui	v0,0x8014
80103714:	00431021 	addu	v0,v0,v1
80103718:	8c42e8a0 	lw	v0,-5984(v0)
8010371c:	10400015 	beqz	v0,80103774 <thread_delete+0x88>
80103720:	8fbf0018 	lw	ra,24(sp)
80103724:	0c040a5f 	jal	8010297c <save_cpu_sr>
80103728:	00000000 	nop
8010372c:	3c038010 	lui	v1,0x8010
80103730:	8c634f34 	lw	v1,20276(v1)
80103734:	00408821 	move	s1,v0
80103738:	3c048014 	lui	a0,0x8014
8010373c:	2484ea80 	addiu	a0,a0,-5504
80103740:	8c62000c 	lw	v0,12(v1)
80103744:	24650004 	addiu	a1,v1,4
80103748:	16020009 	bne	s0,v0,80103770 <thread_delete+0x84>
8010374c:	2406ffff 	li	a2,-1
80103750:	24020005 	li	v0,5
80103754:	0c040ee4 	jal	80103b90 <insert_back_list>
80103758:	ac620014 	sw	v0,20(v1)
8010375c:	0c040a6f 	jal	801029bc <restore_cpu_sr>
80103760:	02202021 	move	a0,s1
80103764:	0c040c3d 	jal	801030f4 <schedule>
80103768:	24040001 	li	a0,1
8010376c:	00003021 	move	a2,zero
80103770:	8fbf0018 	lw	ra,24(sp)
80103774:	8fb10014 	lw	s1,20(sp)
80103778:	8fb00010 	lw	s0,16(sp)
8010377c:	00c01021 	move	v0,a2
80103780:	03e00008 	jr	ra
80103784:	27bd0020 	addiu	sp,sp,32

80103788 <thread_yield>:
80103788:	27bdffe8 	addiu	sp,sp,-24
8010378c:	afbf0010 	sw	ra,16(sp)
80103790:	0c040c3d 	jal	801030f4 <schedule>
80103794:	24040001 	li	a0,1
80103798:	8fbf0010 	lw	ra,16(sp)
8010379c:	03e00008 	jr	ra
801037a0:	27bd0018 	addiu	sp,sp,24

801037a4 <thread_delay>:
801037a4:	27bdffe0 	addiu	sp,sp,-32
801037a8:	afb10014 	sw	s1,20(sp)
801037ac:	00808821 	move	s1,a0
801037b0:	00802821 	move	a1,a0
801037b4:	afbf0018 	sw	ra,24(sp)
801037b8:	afb00010 	sw	s0,16(sp)
801037bc:	3c048010 	lui	a0,0x8010
801037c0:	24844cc4 	addiu	a0,a0,19652
801037c4:	12200014 	beqz	s1,80103818 <thread_delay+0x74>
801037c8:	2402ffff 	li	v0,-1
801037cc:	0c04037e 	jal	80100df8 <printf>
801037d0:	00000000 	nop
801037d4:	0c040a5f 	jal	8010297c <save_cpu_sr>
801037d8:	00000000 	nop
801037dc:	3c038010 	lui	v1,0x8010
801037e0:	8c634f34 	lw	v1,20276(v1)
801037e4:	00408021 	move	s0,v0
801037e8:	24020004 	li	v0,4
801037ec:	ac620014 	sw	v0,20(v1)
801037f0:	24650004 	addiu	a1,v1,4
801037f4:	3c048013 	lui	a0,0x8013
801037f8:	24846680 	addiu	a0,a0,26240
801037fc:	0c040ee4 	jal	80103b90 <insert_back_list>
80103800:	ac710020 	sw	s1,32(v1)
80103804:	0c040a6f 	jal	801029bc <restore_cpu_sr>
80103808:	02002021 	move	a0,s0
8010380c:	0c040c3d 	jal	801030f4 <schedule>
80103810:	24040001 	li	a0,1
80103814:	00001021 	move	v0,zero
80103818:	8fbf0018 	lw	ra,24(sp)
8010381c:	8fb10014 	lw	s1,20(sp)
80103820:	8fb00010 	lw	s0,16(sp)
80103824:	03e00008 	jr	ra
80103828:	27bd0020 	addiu	sp,sp,32

8010382c <thread_suspend>:
8010382c:	27bdffe0 	addiu	sp,sp,-32
80103830:	00041080 	sll	v0,a0,0x2
80103834:	2c830065 	sltiu	v1,a0,101
80103838:	afb10014 	sw	s1,20(sp)
8010383c:	afb00010 	sw	s0,16(sp)
80103840:	afbf001c 	sw	ra,28(sp)
80103844:	00808021 	move	s0,a0
80103848:	afb20018 	sw	s2,24(sp)
8010384c:	3c118014 	lui	s1,0x8014
80103850:	2631e8a0 	addiu	s1,s1,-5984
80103854:	02228821 	addu	s1,s1,v0
80103858:	10600019 	beqz	v1,801038c0 <thread_suspend+0x94>
8010385c:	2404ffff 	li	a0,-1
80103860:	8e220000 	lw	v0,0(s1)
80103864:	10400017 	beqz	v0,801038c4 <thread_suspend+0x98>
80103868:	8fbf001c 	lw	ra,28(sp)
8010386c:	0c040a5f 	jal	8010297c <save_cpu_sr>
80103870:	00000000 	nop
80103874:	3c038010 	lui	v1,0x8010
80103878:	8c634f34 	lw	v1,20276(v1)
8010387c:	00409021 	move	s2,v0
80103880:	3c048014 	lui	a0,0x8014
80103884:	2484e690 	addiu	a0,a0,-6512
80103888:	8c62000c 	lw	v0,12(v1)
8010388c:	10500022 	beq	v0,s0,80103918 <thread_suspend+0xec>
80103890:	8e260000 	lw	a2,0(s1)
80103894:	90620018 	lbu	v0,24(v1)
80103898:	90c30018 	lbu	v1,24(a2)
8010389c:	0043102b 	sltu	v0,v0,v1
801038a0:	10400004 	beqz	v0,801038b4 <thread_suspend+0x88>
801038a4:	02402021 	move	a0,s2
801038a8:	8cc20014 	lw	v0,20(a2)
801038ac:	1040000b 	beqz	v0,801038dc <thread_suspend+0xb0>
801038b0:	24d00004 	addiu	s0,a2,4
801038b4:	0c040a6f 	jal	801029bc <restore_cpu_sr>
801038b8:	00000000 	nop
801038bc:	2404ffff 	li	a0,-1
801038c0:	8fbf001c 	lw	ra,28(sp)
801038c4:	8fb20018 	lw	s2,24(sp)
801038c8:	8fb10014 	lw	s1,20(sp)
801038cc:	8fb00010 	lw	s0,16(sp)
801038d0:	00801021 	move	v0,a0
801038d4:	03e00008 	jr	ra
801038d8:	27bd0020 	addiu	sp,sp,32
801038dc:	24020003 	li	v0,3
801038e0:	02002021 	move	a0,s0
801038e4:	0c040ef0 	jal	80103bc0 <delete_list>
801038e8:	acc20014 	sw	v0,20(a2)
801038ec:	02002821 	move	a1,s0
801038f0:	3c048014 	lui	a0,0x8014
801038f4:	2484e690 	addiu	a0,a0,-6512
801038f8:	0c040ee4 	jal	80103b90 <insert_back_list>
801038fc:	00000000 	nop
80103900:	0c040a6f 	jal	801029bc <restore_cpu_sr>
80103904:	02402021 	move	a0,s2
80103908:	0c040c3d 	jal	801030f4 <schedule>
8010390c:	24040001 	li	a0,1
80103910:	08040e30 	j	801038c0 <thread_suspend+0x94>
80103914:	00002021 	move	a0,zero
80103918:	24020003 	li	v0,3
8010391c:	24c50004 	addiu	a1,a2,4
80103920:	08040e3e 	j	801038f8 <thread_suspend+0xcc>
80103924:	acc20014 	sw	v0,20(a2)

80103928 <thread_resume>:
80103928:	27bdffe0 	addiu	sp,sp,-32
8010392c:	00041080 	sll	v0,a0,0x2
80103930:	2c840065 	sltiu	a0,a0,101
80103934:	afb00010 	sw	s0,16(sp)
80103938:	afbf001c 	sw	ra,28(sp)
8010393c:	afb20018 	sw	s2,24(sp)
80103940:	afb10014 	sw	s1,20(sp)
80103944:	3c108014 	lui	s0,0x8014
80103948:	2610e8a0 	addiu	s0,s0,-5984
8010394c:	02028021 	addu	s0,s0,v0
80103950:	10800021 	beqz	a0,801039d8 <thread_resume+0xb0>
80103954:	2403ffff 	li	v1,-1
80103958:	8e020000 	lw	v0,0(s0)
8010395c:	1040001f 	beqz	v0,801039dc <thread_resume+0xb4>
80103960:	8fbf001c 	lw	ra,28(sp)
80103964:	0c040a5f 	jal	8010297c <save_cpu_sr>
80103968:	00000000 	nop
8010396c:	8e100000 	lw	s0,0(s0)
80103970:	00409021 	move	s2,v0
80103974:	00402021 	move	a0,v0
80103978:	8e030014 	lw	v1,20(s0)
8010397c:	24020003 	li	v0,3
80103980:	1462001c 	bne	v1,v0,801039f4 <thread_resume+0xcc>
80103984:	26110004 	addiu	s1,s0,4
80103988:	02202021 	move	a0,s1
8010398c:	0c040ef0 	jal	80103bc0 <delete_list>
80103990:	ae000014 	sw	zero,20(s0)
80103994:	92040018 	lbu	a0,24(s0)
80103998:	00042100 	sll	a0,a0,0x4
8010399c:	3c018014 	lui	at,0x8014
801039a0:	2421e6a0 	addiu	at,at,-6496
801039a4:	00242021 	addu	a0,at,a0
801039a8:	0c040ee4 	jal	80103b90 <insert_back_list>
801039ac:	02202821 	move	a1,s1
801039b0:	92030018 	lbu	v1,24(s0)
801039b4:	24020001 	li	v0,1
801039b8:	3c018014 	lui	at,0x8014
801039bc:	00230821 	addu	at,at,v1
801039c0:	a022ea30 	sb	v0,-5584(at)
801039c4:	0c040a6f 	jal	801029bc <restore_cpu_sr>
801039c8:	02402021 	move	a0,s2
801039cc:	0c040c3d 	jal	801030f4 <schedule>
801039d0:	24040001 	li	a0,1
801039d4:	00001821 	move	v1,zero
801039d8:	8fbf001c 	lw	ra,28(sp)
801039dc:	8fb20018 	lw	s2,24(sp)
801039e0:	8fb10014 	lw	s1,20(sp)
801039e4:	8fb00010 	lw	s0,16(sp)
801039e8:	00601021 	move	v0,v1
801039ec:	03e00008 	jr	ra
801039f0:	27bd0020 	addiu	sp,sp,32
801039f4:	0c040a6f 	jal	801029bc <restore_cpu_sr>
801039f8:	00000000 	nop
801039fc:	08040e76 	j	801039d8 <thread_resume+0xb0>
80103a00:	2403ffff 	li	v1,-1
	...

80103a10 <is_head>:
80103a10:	10800008 	beqz	a0,80103a34 <is_head+0x24>
80103a14:	00001821 	move	v1,zero
80103a18:	8c820004 	lw	v0,4(a0)
80103a1c:	14400005 	bnez	v0,80103a34 <is_head+0x24>
80103a20:	00000000 	nop
80103a24:	8c820000 	lw	v0,0(a0)
80103a28:	10400002 	beqz	v0,80103a34 <is_head+0x24>
80103a2c:	00000000 	nop
80103a30:	24030001 	li	v1,1
80103a34:	03e00008 	jr	ra
80103a38:	306200ff 	andi	v0,v1,0xff

80103a3c <is_interio>:
80103a3c:	10800008 	beqz	a0,80103a60 <is_interio+0x24>
80103a40:	00001821 	move	v1,zero
80103a44:	8c820004 	lw	v0,4(a0)
80103a48:	10400005 	beqz	v0,80103a60 <is_interio+0x24>
80103a4c:	00000000 	nop
80103a50:	8c820000 	lw	v0,0(a0)
80103a54:	10400002 	beqz	v0,80103a60 <is_interio+0x24>
80103a58:	00000000 	nop
80103a5c:	24030001 	li	v1,1
80103a60:	03e00008 	jr	ra
80103a64:	306200ff 	andi	v0,v1,0xff

80103a68 <is_tail>:
80103a68:	10800008 	beqz	a0,80103a8c <is_tail+0x24>
80103a6c:	00001821 	move	v1,zero
80103a70:	8c820004 	lw	v0,4(a0)
80103a74:	10400005 	beqz	v0,80103a8c <is_tail+0x24>
80103a78:	00000000 	nop
80103a7c:	8c820000 	lw	v0,0(a0)
80103a80:	14400002 	bnez	v0,80103a8c <is_tail+0x24>
80103a84:	00000000 	nop
80103a88:	24030001 	li	v1,1
80103a8c:	03e00008 	jr	ra
80103a90:	306200ff 	andi	v0,v1,0xff

80103a94 <init_list>:
80103a94:	24820008 	addiu	v0,a0,8
80103a98:	ac820000 	sw	v0,0(a0)
80103a9c:	ac800008 	sw	zero,8(a0)
80103aa0:	ac800004 	sw	zero,4(a0)
80103aa4:	03e00008 	jr	ra
80103aa8:	ac84000c 	sw	a0,12(a0)

80103aac <begin_list>:
80103aac:	03e00008 	jr	ra
80103ab0:	8c820000 	lw	v0,0(a0)

80103ab4 <next_list>:
80103ab4:	03e00008 	jr	ra
80103ab8:	8c820000 	lw	v0,0(a0)

80103abc <end_list>:
80103abc:	03e00008 	jr	ra
80103ac0:	24820008 	addiu	v0,a0,8

80103ac4 <head_list>:
80103ac4:	03e00008 	jr	ra
80103ac8:	00801021 	move	v0,a0

80103acc <tail_list>:
80103acc:	03e00008 	jr	ra
80103ad0:	24820008 	addiu	v0,a0,8

80103ad4 <front_list>:
80103ad4:	03e00008 	jr	ra
80103ad8:	8c820000 	lw	v0,0(a0)

80103adc <back_list>:
80103adc:	03e00008 	jr	ra
80103ae0:	8c82000c 	lw	v0,12(a0)

80103ae4 <is_empty_list>:
80103ae4:	27bdffe0 	addiu	sp,sp,-32
80103ae8:	afbf0018 	sw	ra,24(sp)
80103aec:	afb10014 	sw	s1,20(sp)
80103af0:	afb00010 	sw	s0,16(sp)
80103af4:	0c040eab 	jal	80103aac <begin_list>
80103af8:	00808021 	move	s0,a0
80103afc:	02002021 	move	a0,s0
80103b00:	0c040eaf 	jal	80103abc <end_list>
80103b04:	00408821 	move	s1,v0
80103b08:	02228826 	xor	s1,s1,v0
80103b0c:	2e310001 	sltiu	s1,s1,1
80103b10:	02201021 	move	v0,s1
80103b14:	8fbf0018 	lw	ra,24(sp)
80103b18:	8fb10014 	lw	s1,20(sp)
80103b1c:	8fb00010 	lw	s0,16(sp)
80103b20:	03e00008 	jr	ra
80103b24:	27bd0020 	addiu	sp,sp,32

80103b28 <insert_after_list>:
80103b28:	8c830004 	lw	v1,4(a0)
80103b2c:	aca40000 	sw	a0,0(a1)
80103b30:	aca30004 	sw	v1,4(a1)
80103b34:	8c820004 	lw	v0,4(a0)
80103b38:	ac850004 	sw	a1,4(a0)
80103b3c:	03e00008 	jr	ra
80103b40:	ac450000 	sw	a1,0(v0)

80103b44 <insert_before_list>:
80103b44:	8c830000 	lw	v1,0(a0)
80103b48:	aca40004 	sw	a0,4(a1)
80103b4c:	aca30000 	sw	v1,0(a1)
80103b50:	8c820000 	lw	v0,0(a0)
80103b54:	ac850000 	sw	a1,0(a0)
80103b58:	03e00008 	jr	ra
80103b5c:	ac450004 	sw	a1,4(v0)

80103b60 <insert_front_list>:
80103b60:	27bdffe8 	addiu	sp,sp,-24
80103b64:	afbf0014 	sw	ra,20(sp)
80103b68:	afb00010 	sw	s0,16(sp)
80103b6c:	0c040eab 	jal	80103aac <begin_list>
80103b70:	00a08021 	move	s0,a1
80103b74:	00402021 	move	a0,v0
80103b78:	0c040eca 	jal	80103b28 <insert_after_list>
80103b7c:	02002821 	move	a1,s0
80103b80:	8fbf0014 	lw	ra,20(sp)
80103b84:	8fb00010 	lw	s0,16(sp)
80103b88:	03e00008 	jr	ra
80103b8c:	27bd0018 	addiu	sp,sp,24

80103b90 <insert_back_list>:
80103b90:	27bdffe8 	addiu	sp,sp,-24
80103b94:	afbf0014 	sw	ra,20(sp)
80103b98:	afb00010 	sw	s0,16(sp)
80103b9c:	0c040eaf 	jal	80103abc <end_list>
80103ba0:	00a08021 	move	s0,a1
80103ba4:	00402021 	move	a0,v0
80103ba8:	0c040eca 	jal	80103b28 <insert_after_list>
80103bac:	02002821 	move	a1,s0
80103bb0:	8fbf0014 	lw	ra,20(sp)
80103bb4:	8fb00010 	lw	s0,16(sp)
80103bb8:	03e00008 	jr	ra
80103bbc:	27bd0018 	addiu	sp,sp,24

80103bc0 <delete_list>:
80103bc0:	8c830004 	lw	v1,4(a0)
80103bc4:	8c820000 	lw	v0,0(a0)
80103bc8:	ac620000 	sw	v0,0(v1)
80103bcc:	8c820000 	lw	v0,0(a0)
80103bd0:	03e00008 	jr	ra
80103bd4:	ac430004 	sw	v1,4(v0)

80103bd8 <delete_front_list>:
80103bd8:	27bdffe8 	addiu	sp,sp,-24
80103bdc:	afbf0014 	sw	ra,20(sp)
80103be0:	0c040eb5 	jal	80103ad4 <front_list>
80103be4:	afb00010 	sw	s0,16(sp)
80103be8:	00408021 	move	s0,v0
80103bec:	0c040ef0 	jal	80103bc0 <delete_list>
80103bf0:	00402021 	move	a0,v0
80103bf4:	02001021 	move	v0,s0
80103bf8:	8fbf0014 	lw	ra,20(sp)
80103bfc:	8fb00010 	lw	s0,16(sp)
80103c00:	03e00008 	jr	ra
80103c04:	27bd0018 	addiu	sp,sp,24

80103c08 <delete_back_list>:
80103c08:	27bdffe8 	addiu	sp,sp,-24
80103c0c:	afbf0014 	sw	ra,20(sp)
80103c10:	0c040eb7 	jal	80103adc <back_list>
80103c14:	afb00010 	sw	s0,16(sp)
80103c18:	00408021 	move	s0,v0
80103c1c:	0c040ef0 	jal	80103bc0 <delete_list>
80103c20:	00402021 	move	a0,v0
80103c24:	02001021 	move	v0,s0
80103c28:	8fbf0014 	lw	ra,20(sp)
80103c2c:	8fb00010 	lw	s0,16(sp)
80103c30:	03e00008 	jr	ra
80103c34:	27bd0018 	addiu	sp,sp,24
	...

80103c40 <sem_init>:
80103c40:	27bdffe8 	addiu	sp,sp,-24
80103c44:	00801821 	move	v1,a0
80103c48:	afbf0010 	sw	ra,16(sp)
80103c4c:	24840004 	addiu	a0,a0,4
80103c50:	30a500ff 	andi	a1,a1,0xff
80103c54:	10600004 	beqz	v1,80103c68 <sem_init+0x28>
80103c58:	2402ffff 	li	v0,-1
80103c5c:	0c040ea5 	jal	80103a94 <init_list>
80103c60:	a0650000 	sb	a1,0(v1)
80103c64:	00001021 	move	v0,zero
80103c68:	8fbf0010 	lw	ra,16(sp)
80103c6c:	03e00008 	jr	ra
80103c70:	27bd0018 	addiu	sp,sp,24

80103c74 <sem_pend>:
80103c74:	27bdffe0 	addiu	sp,sp,-32
80103c78:	afb00010 	sw	s0,16(sp)
80103c7c:	afbf0018 	sw	ra,24(sp)
80103c80:	00808021 	move	s0,a0
80103c84:	0c040a5f 	jal	8010297c <save_cpu_sr>
80103c88:	afb10014 	sw	s1,20(sp)
80103c8c:	00402021 	move	a0,v0
80103c90:	92020000 	lbu	v0,0(s0)
80103c94:	1440002e 	bnez	v0,80103d50 <sem_pend+0xdc>
80103c98:	2442ffff 	addiu	v0,v0,-1
80103c9c:	26110004 	addiu	s1,s0,4
80103ca0:	0c040eb9 	jal	80103ae4 <is_empty_list>
80103ca4:	02202021 	move	a0,s1
80103ca8:	10400011 	beqz	v0,80103cf0 <sem_pend+0x7c>
80103cac:	00000000 	nop
80103cb0:	3c038010 	lui	v1,0x8010
80103cb4:	8c634f34 	lw	v1,20276(v1)
80103cb8:	24040002 	li	a0,2
80103cbc:	8c620014 	lw	v0,20(v1)
80103cc0:	10440004 	beq	v0,a0,80103cd4 <sem_pend+0x60>
80103cc4:	24650004 	addiu	a1,v1,4
80103cc8:	ac640014 	sw	a0,20(v1)
80103ccc:	0c040ee4 	jal	80103b90 <insert_back_list>
80103cd0:	02202021 	move	a0,s1
80103cd4:	0c040c3d 	jal	801030f4 <schedule>
80103cd8:	24040001 	li	a0,1
80103cdc:	8fbf0018 	lw	ra,24(sp)
80103ce0:	8fb10014 	lw	s1,20(sp)
80103ce4:	8fb00010 	lw	s0,16(sp)
80103ce8:	03e00008 	jr	ra
80103cec:	27bd0020 	addiu	sp,sp,32
80103cf0:	0c040eab 	jal	80103aac <begin_list>
80103cf4:	02202021 	move	a0,s1
80103cf8:	02202021 	move	a0,s1
80103cfc:	0c040eaf 	jal	80103abc <end_list>
80103d00:	00408021 	move	s0,v0
80103d04:	1202ffea 	beq	s0,v0,80103cb0 <sem_pend+0x3c>
80103d08:	02002021 	move	a0,s0
80103d0c:	3c068010 	lui	a2,0x8010
80103d10:	8cc64f34 	lw	a2,20276(a2)
80103d14:	92030014 	lbu	v1,20(s0)
80103d18:	90c20018 	lbu	v0,24(a2)
80103d1c:	0043102b 	sltu	v0,v0,v1
80103d20:	14400005 	bnez	v0,80103d38 <sem_pend+0xc4>
80103d24:	24c50004 	addiu	a1,a2,4
80103d28:	0c040ead 	jal	80103ab4 <next_list>
80103d2c:	00000000 	nop
80103d30:	08040f3f 	j	80103cfc <sem_pend+0x88>
80103d34:	02202021 	move	a0,s1
80103d38:	24020002 	li	v0,2
80103d3c:	acc20014 	sw	v0,20(a2)
80103d40:	0c040ed1 	jal	80103b44 <insert_before_list>
80103d44:	02002021 	move	a0,s0
80103d48:	08040f2c 	j	80103cb0 <sem_pend+0x3c>
80103d4c:	00000000 	nop
80103d50:	0c040a6f 	jal	801029bc <restore_cpu_sr>
80103d54:	a2020000 	sb	v0,0(s0)
80103d58:	08040f38 	j	80103ce0 <sem_pend+0x6c>
80103d5c:	8fbf0018 	lw	ra,24(sp)

80103d60 <sem_try_pend>:
80103d60:	27bdffe8 	addiu	sp,sp,-24
80103d64:	afb00010 	sw	s0,16(sp)
80103d68:	afbf0014 	sw	ra,20(sp)
80103d6c:	0c040a5f 	jal	8010297c <save_cpu_sr>
80103d70:	00808021 	move	s0,a0
80103d74:	00402821 	move	a1,v0
80103d78:	92020000 	lbu	v0,0(s0)
80103d7c:	00a02021 	move	a0,a1
80103d80:	10400008 	beqz	v0,80103da4 <sem_try_pend+0x44>
80103d84:	2443ffff 	addiu	v1,v0,-1
80103d88:	0c040a6f 	jal	801029bc <restore_cpu_sr>
80103d8c:	a2030000 	sb	v1,0(s0)
80103d90:	00001021 	move	v0,zero
80103d94:	8fbf0014 	lw	ra,20(sp)
80103d98:	8fb00010 	lw	s0,16(sp)
80103d9c:	03e00008 	jr	ra
80103da0:	27bd0018 	addiu	sp,sp,24
80103da4:	0c040a6f 	jal	801029bc <restore_cpu_sr>
80103da8:	00a02021 	move	a0,a1
80103dac:	08040f65 	j	80103d94 <sem_try_pend+0x34>
80103db0:	2402ffff 	li	v0,-1

80103db4 <sem_post>:
80103db4:	27bdffe0 	addiu	sp,sp,-32
80103db8:	afb00010 	sw	s0,16(sp)
80103dbc:	24900004 	addiu	s0,a0,4
80103dc0:	afbf001c 	sw	ra,28(sp)
80103dc4:	afb20018 	sw	s2,24(sp)
80103dc8:	afb10014 	sw	s1,20(sp)
80103dcc:	0c040a5f 	jal	8010297c <save_cpu_sr>
80103dd0:	00808821 	move	s1,a0
80103dd4:	02002021 	move	a0,s0
80103dd8:	0c040eb9 	jal	80103ae4 <is_empty_list>
80103ddc:	00409021 	move	s2,v0
80103de0:	1440001b 	bnez	v0,80103e50 <sem_post+0x9c>
80103de4:	02002021 	move	a0,s0
80103de8:	0c040ef6 	jal	80103bd8 <delete_front_list>
80103dec:	00000000 	nop
80103df0:	2450fffc 	addiu	s0,v0,-4
80103df4:	92040018 	lbu	a0,24(s0)
80103df8:	00402821 	move	a1,v0
80103dfc:	00042100 	sll	a0,a0,0x4
80103e00:	3c018014 	lui	at,0x8014
80103e04:	2421e6a0 	addiu	at,at,-6496
80103e08:	00242021 	addu	a0,at,a0
80103e0c:	0c040ee4 	jal	80103b90 <insert_back_list>
80103e10:	ae000014 	sw	zero,20(s0)
80103e14:	92030018 	lbu	v1,24(s0)
80103e18:	24020001 	li	v0,1
80103e1c:	3c018014 	lui	at,0x8014
80103e20:	00230821 	addu	at,at,v1
80103e24:	a022ea30 	sb	v0,-5584(at)
80103e28:	0c040a6f 	jal	801029bc <restore_cpu_sr>
80103e2c:	02402021 	move	a0,s2
80103e30:	0c040c3d 	jal	801030f4 <schedule>
80103e34:	24040001 	li	a0,1
80103e38:	8fbf001c 	lw	ra,28(sp)
80103e3c:	8fb20018 	lw	s2,24(sp)
80103e40:	8fb10014 	lw	s1,20(sp)
80103e44:	8fb00010 	lw	s0,16(sp)
80103e48:	03e00008 	jr	ra
80103e4c:	27bd0020 	addiu	sp,sp,32
80103e50:	92220000 	lbu	v0,0(s1)
80103e54:	02402021 	move	a0,s2
80103e58:	24420001 	addiu	v0,v0,1
80103e5c:	0c040a6f 	jal	801029bc <restore_cpu_sr>
80103e60:	a2220000 	sb	v0,0(s1)
80103e64:	08040f8f 	j	80103e3c <sem_post+0x88>
80103e68:	8fbf001c 	lw	ra,28(sp)
80103e6c:	00000000 	nop

80103e70 <mbox_init>:
80103e70:	27bdffe8 	addiu	sp,sp,-24
80103e74:	00801021 	move	v0,a0
80103e78:	afbf0010 	sw	ra,16(sp)
80103e7c:	10400003 	beqz	v0,80103e8c <mbox_init+0x1c>
80103e80:	24840004 	addiu	a0,a0,4
80103e84:	0c040ea5 	jal	80103a94 <init_list>
80103e88:	ac450000 	sw	a1,0(v0)
80103e8c:	8fbf0010 	lw	ra,16(sp)
80103e90:	00001021 	move	v0,zero
80103e94:	03e00008 	jr	ra
80103e98:	27bd0018 	addiu	sp,sp,24

80103e9c <mbox_recv>:
80103e9c:	27bdffe0 	addiu	sp,sp,-32
80103ea0:	afb10014 	sw	s1,20(sp)
80103ea4:	afb20018 	sw	s2,24(sp)
80103ea8:	afb00010 	sw	s0,16(sp)
80103eac:	afbf001c 	sw	ra,28(sp)
80103eb0:	0c040a5f 	jal	8010297c <save_cpu_sr>
80103eb4:	00808821 	move	s1,a0
80103eb8:	8e300000 	lw	s0,0(s1)
80103ebc:	1200000c 	beqz	s0,80103ef0 <mbox_recv+0x54>
80103ec0:	00409021 	move	s2,v0
80103ec4:	00402021 	move	a0,v0
80103ec8:	ae200000 	sw	zero,0(s1)
80103ecc:	0c040a6f 	jal	801029bc <restore_cpu_sr>
80103ed0:	00000000 	nop
80103ed4:	02001021 	move	v0,s0
80103ed8:	8fbf001c 	lw	ra,28(sp)
80103edc:	8fb20018 	lw	s2,24(sp)
80103ee0:	8fb10014 	lw	s1,20(sp)
80103ee4:	8fb00010 	lw	s0,16(sp)
80103ee8:	03e00008 	jr	ra
80103eec:	27bd0020 	addiu	sp,sp,32
80103ef0:	26310004 	addiu	s1,s1,4
80103ef4:	0c040eb9 	jal	80103ae4 <is_empty_list>
80103ef8:	02202021 	move	a0,s1
80103efc:	10400015 	beqz	v0,80103f54 <mbox_recv+0xb8>
80103f00:	00000000 	nop
80103f04:	3c038010 	lui	v1,0x8010
80103f08:	8c634f34 	lw	v1,20276(v1)
80103f0c:	24040002 	li	a0,2
80103f10:	8c620014 	lw	v0,20(v1)
80103f14:	10440004 	beq	v0,a0,80103f28 <mbox_recv+0x8c>
80103f18:	24650004 	addiu	a1,v1,4
80103f1c:	ac640014 	sw	a0,20(v1)
80103f20:	0c040ee4 	jal	80103b90 <insert_back_list>
80103f24:	02202021 	move	a0,s1
80103f28:	0c040a6f 	jal	801029bc <restore_cpu_sr>
80103f2c:	02402021 	move	a0,s2
80103f30:	0c040c3d 	jal	801030f4 <schedule>
80103f34:	24040001 	li	a0,1
80103f38:	0c040a5f 	jal	8010297c <save_cpu_sr>
80103f3c:	00000000 	nop
80103f40:	00402021 	move	a0,v0
80103f44:	3c028010 	lui	v0,0x8010
80103f48:	8c424f34 	lw	v0,20276(v0)
80103f4c:	08040fb3 	j	80103ecc <mbox_recv+0x30>
80103f50:	8c500024 	lw	s0,36(v0)
80103f54:	0c040eab 	jal	80103aac <begin_list>
80103f58:	02202021 	move	a0,s1
80103f5c:	02202021 	move	a0,s1
80103f60:	0c040eaf 	jal	80103abc <end_list>
80103f64:	00408021 	move	s0,v0
80103f68:	1202ffe6 	beq	s0,v0,80103f04 <mbox_recv+0x68>
80103f6c:	02002021 	move	a0,s0
80103f70:	3c068010 	lui	a2,0x8010
80103f74:	8cc64f34 	lw	a2,20276(a2)
80103f78:	92030014 	lbu	v1,20(s0)
80103f7c:	90c20018 	lbu	v0,24(a2)
80103f80:	0043102b 	sltu	v0,v0,v1
80103f84:	14400005 	bnez	v0,80103f9c <mbox_recv+0x100>
80103f88:	24c50004 	addiu	a1,a2,4
80103f8c:	0c040ead 	jal	80103ab4 <next_list>
80103f90:	00000000 	nop
80103f94:	08040fd8 	j	80103f60 <mbox_recv+0xc4>
80103f98:	02202021 	move	a0,s1
80103f9c:	24020002 	li	v0,2
80103fa0:	acc20014 	sw	v0,20(a2)
80103fa4:	0c040ed1 	jal	80103b44 <insert_before_list>
80103fa8:	02002021 	move	a0,s0
80103fac:	08040fc1 	j	80103f04 <mbox_recv+0x68>
80103fb0:	00000000 	nop

80103fb4 <mbox_try_recv>:
80103fb4:	27bdffe0 	addiu	sp,sp,-32
80103fb8:	afb00010 	sw	s0,16(sp)
80103fbc:	00808021 	move	s0,a0
80103fc0:	afbf0018 	sw	ra,24(sp)
80103fc4:	0c040a5f 	jal	8010297c <save_cpu_sr>
80103fc8:	afb10014 	sw	s1,20(sp)
80103fcc:	8e110000 	lw	s1,0(s0)
80103fd0:	00402021 	move	a0,v0
80103fd4:	0c040a6f 	jal	801029bc <restore_cpu_sr>
80103fd8:	ae000000 	sw	zero,0(s0)
80103fdc:	02201021 	move	v0,s1
80103fe0:	8fbf0018 	lw	ra,24(sp)
80103fe4:	8fb10014 	lw	s1,20(sp)
80103fe8:	8fb00010 	lw	s0,16(sp)
80103fec:	03e00008 	jr	ra
80103ff0:	27bd0020 	addiu	sp,sp,32

80103ff4 <mbox_send>:
80103ff4:	27bdffd8 	addiu	sp,sp,-40
80103ff8:	afb00010 	sw	s0,16(sp)
80103ffc:	24900004 	addiu	s0,a0,4
80104000:	afbf0020 	sw	ra,32(sp)
80104004:	afb3001c 	sw	s3,28(sp)
80104008:	afb20018 	sw	s2,24(sp)
8010400c:	afb10014 	sw	s1,20(sp)
80104010:	00a09821 	move	s3,a1
80104014:	0c040a5f 	jal	8010297c <save_cpu_sr>
80104018:	00808821 	move	s1,a0
8010401c:	02002021 	move	a0,s0
80104020:	0c040eb9 	jal	80103ae4 <is_empty_list>
80104024:	00409021 	move	s2,v0
80104028:	10400012 	beqz	v0,80104074 <mbox_send+0x80>
8010402c:	02002021 	move	a0,s0
80104030:	8e220000 	lw	v0,0(s1)
80104034:	1440000b 	bnez	v0,80104064 <mbox_send+0x70>
80104038:	02402021 	move	a0,s2
8010403c:	0c040a6f 	jal	801029bc <restore_cpu_sr>
80104040:	ae330000 	sw	s3,0(s1)
80104044:	00001021 	move	v0,zero
80104048:	8fbf0020 	lw	ra,32(sp)
8010404c:	8fb3001c 	lw	s3,28(sp)
80104050:	8fb20018 	lw	s2,24(sp)
80104054:	8fb10014 	lw	s1,20(sp)
80104058:	8fb00010 	lw	s0,16(sp)
8010405c:	03e00008 	jr	ra
80104060:	27bd0028 	addiu	sp,sp,40
80104064:	0c040a6f 	jal	801029bc <restore_cpu_sr>
80104068:	02402021 	move	a0,s2
8010406c:	08041012 	j	80104048 <mbox_send+0x54>
80104070:	2402ffff 	li	v0,-1
80104074:	0c040ef6 	jal	80103bd8 <delete_front_list>
80104078:	00000000 	nop
8010407c:	2450fffc 	addiu	s0,v0,-4
80104080:	92040018 	lbu	a0,24(s0)
80104084:	00402821 	move	a1,v0
80104088:	ae130024 	sw	s3,36(s0)
8010408c:	00042100 	sll	a0,a0,0x4
80104090:	3c018014 	lui	at,0x8014
80104094:	2421e6a0 	addiu	at,at,-6496
80104098:	00242021 	addu	a0,at,a0
8010409c:	0c040ee4 	jal	80103b90 <insert_back_list>
801040a0:	ae000014 	sw	zero,20(s0)
801040a4:	92030018 	lbu	v1,24(s0)
801040a8:	24020001 	li	v0,1
801040ac:	3c018014 	lui	at,0x8014
801040b0:	00230821 	addu	at,at,v1
801040b4:	a022ea30 	sb	v0,-5584(at)
801040b8:	0c040a6f 	jal	801029bc <restore_cpu_sr>
801040bc:	02402021 	move	a0,s2
801040c0:	0c040c3d 	jal	801030f4 <schedule>
801040c4:	24040001 	li	a0,1
801040c8:	08041012 	j	80104048 <mbox_send+0x54>
801040cc:	00001021 	move	v0,zero

801040d0 <msgq_init>:
801040d0:	27bdffe8 	addiu	sp,sp,-24
801040d4:	afb00010 	sw	s0,16(sp)
801040d8:	afbf0014 	sw	ra,20(sp)
801040dc:	00808021 	move	s0,a0
801040e0:	10800006 	beqz	a0,801040fc <msgq_init+0x2c>
801040e4:	2402ffff 	li	v0,-1
801040e8:	0c040ea5 	jal	80103a94 <init_list>
801040ec:	00000000 	nop
801040f0:	0c040ea5 	jal	80103a94 <init_list>
801040f4:	26040010 	addiu	a0,s0,16
801040f8:	00001021 	move	v0,zero
801040fc:	8fbf0014 	lw	ra,20(sp)
80104100:	8fb00010 	lw	s0,16(sp)
80104104:	03e00008 	jr	ra
80104108:	27bd0018 	addiu	sp,sp,24

8010410c <msgq_recv>:
8010410c:	27bdffe0 	addiu	sp,sp,-32
80104110:	afb00010 	sw	s0,16(sp)
80104114:	00808021 	move	s0,a0
80104118:	afb20018 	sw	s2,24(sp)
8010411c:	afbf001c 	sw	ra,28(sp)
80104120:	0c040a5f 	jal	8010297c <save_cpu_sr>
80104124:	afb10014 	sw	s1,20(sp)
80104128:	02002021 	move	a0,s0
8010412c:	0c040eb9 	jal	80103ae4 <is_empty_list>
80104130:	00409021 	move	s2,v0
80104134:	1440000d 	bnez	v0,8010416c <msgq_recv+0x60>
80104138:	26110010 	addiu	s1,s0,16
8010413c:	0c040ef6 	jal	80103bd8 <delete_front_list>
80104140:	02002021 	move	a0,s0
80104144:	00408021 	move	s0,v0
80104148:	0c040a6f 	jal	801029bc <restore_cpu_sr>
8010414c:	02402021 	move	a0,s2
80104150:	8e020008 	lw	v0,8(s0)
80104154:	8fbf001c 	lw	ra,28(sp)
80104158:	8fb20018 	lw	s2,24(sp)
8010415c:	8fb10014 	lw	s1,20(sp)
80104160:	8fb00010 	lw	s0,16(sp)
80104164:	03e00008 	jr	ra
80104168:	27bd0020 	addiu	sp,sp,32
8010416c:	0c040eb9 	jal	80103ae4 <is_empty_list>
80104170:	02202021 	move	a0,s1
80104174:	10400017 	beqz	v0,801041d4 <msgq_recv+0xc8>
80104178:	00000000 	nop
8010417c:	3c038010 	lui	v1,0x8010
80104180:	8c634f34 	lw	v1,20276(v1)
80104184:	24040002 	li	a0,2
80104188:	8c620014 	lw	v0,20(v1)
8010418c:	10440004 	beq	v0,a0,801041a0 <msgq_recv+0x94>
80104190:	24650004 	addiu	a1,v1,4
80104194:	ac640014 	sw	a0,20(v1)
80104198:	0c040ee4 	jal	80103b90 <insert_back_list>
8010419c:	02202021 	move	a0,s1
801041a0:	0c040a6f 	jal	801029bc <restore_cpu_sr>
801041a4:	02402021 	move	a0,s2
801041a8:	0c040c3d 	jal	801030f4 <schedule>
801041ac:	24040001 	li	a0,1
801041b0:	0c040a5f 	jal	8010297c <save_cpu_sr>
801041b4:	00000000 	nop
801041b8:	00402021 	move	a0,v0
801041bc:	3c028010 	lui	v0,0x8010
801041c0:	8c424f34 	lw	v0,20276(v0)
801041c4:	0c040a6f 	jal	801029bc <restore_cpu_sr>
801041c8:	8c500024 	lw	s0,36(v0)
801041cc:	08041055 	j	80104154 <msgq_recv+0x48>
801041d0:	02001021 	move	v0,s0
801041d4:	0c040eab 	jal	80103aac <begin_list>
801041d8:	02202021 	move	a0,s1
801041dc:	02202021 	move	a0,s1
801041e0:	0c040eaf 	jal	80103abc <end_list>
801041e4:	00408021 	move	s0,v0
801041e8:	1202ffe4 	beq	s0,v0,8010417c <msgq_recv+0x70>
801041ec:	02002021 	move	a0,s0
801041f0:	3c068010 	lui	a2,0x8010
801041f4:	8cc64f34 	lw	a2,20276(a2)
801041f8:	92030014 	lbu	v1,20(s0)
801041fc:	90c20018 	lbu	v0,24(a2)
80104200:	0043102b 	sltu	v0,v0,v1
80104204:	14400005 	bnez	v0,8010421c <msgq_recv+0x110>
80104208:	24c50004 	addiu	a1,a2,4
8010420c:	0c040ead 	jal	80103ab4 <next_list>
80104210:	00000000 	nop
80104214:	08041078 	j	801041e0 <msgq_recv+0xd4>
80104218:	02202021 	move	a0,s1
8010421c:	24020002 	li	v0,2
80104220:	acc20014 	sw	v0,20(a2)
80104224:	0c040ed1 	jal	80103b44 <insert_before_list>
80104228:	02002021 	move	a0,s0
8010422c:	0804105f 	j	8010417c <msgq_recv+0x70>
80104230:	00000000 	nop

80104234 <msgq_try_recv>:
80104234:	27bdffe0 	addiu	sp,sp,-32
80104238:	afb00010 	sw	s0,16(sp)
8010423c:	00808021 	move	s0,a0
80104240:	afbf0018 	sw	ra,24(sp)
80104244:	0c040a5f 	jal	8010297c <save_cpu_sr>
80104248:	afb10014 	sw	s1,20(sp)
8010424c:	02002021 	move	a0,s0
80104250:	0c040eb9 	jal	80103ae4 <is_empty_list>
80104254:	00408821 	move	s1,v0
80104258:	02002021 	move	a0,s0
8010425c:	14400007 	bnez	v0,8010427c <msgq_try_recv+0x48>
80104260:	00001821 	move	v1,zero
80104264:	0c040ef6 	jal	80103bd8 <delete_front_list>
80104268:	00000000 	nop
8010426c:	00408021 	move	s0,v0
80104270:	0c040a6f 	jal	801029bc <restore_cpu_sr>
80104274:	02202021 	move	a0,s1
80104278:	8e030008 	lw	v1,8(s0)
8010427c:	8fbf0018 	lw	ra,24(sp)
80104280:	8fb10014 	lw	s1,20(sp)
80104284:	8fb00010 	lw	s0,16(sp)
80104288:	00601021 	move	v0,v1
8010428c:	03e00008 	jr	ra
80104290:	27bd0020 	addiu	sp,sp,32

80104294 <msgq_send>:
80104294:	27bdffd8 	addiu	sp,sp,-40
80104298:	afb00010 	sw	s0,16(sp)
8010429c:	24900010 	addiu	s0,a0,16
801042a0:	afbf0020 	sw	ra,32(sp)
801042a4:	afb3001c 	sw	s3,28(sp)
801042a8:	afb20018 	sw	s2,24(sp)
801042ac:	00a09821 	move	s3,a1
801042b0:	afb10014 	sw	s1,20(sp)
801042b4:	0c040a5f 	jal	8010297c <save_cpu_sr>
801042b8:	00808821 	move	s1,a0
801042bc:	02002021 	move	a0,s0
801042c0:	0c040eb9 	jal	80103ae4 <is_empty_list>
801042c4:	00409021 	move	s2,v0
801042c8:	02002021 	move	a0,s0
801042cc:	1440001f 	bnez	v0,8010434c <msgq_send+0xb8>
801042d0:	02602821 	move	a1,s3
801042d4:	0c040ef6 	jal	80103bd8 <delete_front_list>
801042d8:	00000000 	nop
801042dc:	2450fffc 	addiu	s0,v0,-4
801042e0:	92040018 	lbu	a0,24(s0)
801042e4:	8e630008 	lw	v1,8(s3)
801042e8:	00402821 	move	a1,v0
801042ec:	00042100 	sll	a0,a0,0x4
801042f0:	ae030024 	sw	v1,36(s0)
801042f4:	3c018014 	lui	at,0x8014
801042f8:	2421e6a0 	addiu	at,at,-6496
801042fc:	00242021 	addu	a0,at,a0
80104300:	0c040ee4 	jal	80103b90 <insert_back_list>
80104304:	ae000014 	sw	zero,20(s0)
80104308:	92030018 	lbu	v1,24(s0)
8010430c:	24020001 	li	v0,1
80104310:	3c018014 	lui	at,0x8014
80104314:	00230821 	addu	at,at,v1
80104318:	a022ea30 	sb	v0,-5584(at)
8010431c:	0c040a6f 	jal	801029bc <restore_cpu_sr>
80104320:	02402021 	move	a0,s2
80104324:	0c040c3d 	jal	801030f4 <schedule>
80104328:	24040001 	li	a0,1
8010432c:	8fbf0020 	lw	ra,32(sp)
80104330:	8fb3001c 	lw	s3,28(sp)
80104334:	8fb20018 	lw	s2,24(sp)
80104338:	8fb10014 	lw	s1,20(sp)
8010433c:	8fb00010 	lw	s0,16(sp)
80104340:	00001021 	move	v0,zero
80104344:	03e00008 	jr	ra
80104348:	27bd0028 	addiu	sp,sp,40
8010434c:	0c040ee4 	jal	80103b90 <insert_back_list>
80104350:	02202021 	move	a0,s1
80104354:	0c040a6f 	jal	801029bc <restore_cpu_sr>
80104358:	02402021 	move	a0,s2
8010435c:	080410cc 	j	80104330 <msgq_send+0x9c>
80104360:	8fbf0020 	lw	ra,32(sp)
	...
80104370:	0000002a 	slt	zero,zero,zero
80104374:	00000026 	xor	zero,zero,zero
80104378:	6c656873 	0x6c656873
8010437c:	68745f6c 	0x68745f6c
80104380:	64616572 	0x64616572
80104384:	00000000 	nop
80104388:	6f666e69 	0x6f666e69
8010438c:	7268745f 	0x7268745f
80104390:	00646165 	0x646165
80104394:	74617473 	jalx	8185d1cc <_end+0x171e73c>
80104398:	69747369 	0x69747369
8010439c:	745f7363 	jalx	817dcd8c <_end+0x169e2fc>
801043a0:	61657268 	0x61657268
801043a4:	00000064 	0x64
801043a8:	6c6c6568 	0x6c6c6568
801043ac:	68745f6f 	0x68745f6f
801043b0:	64616572 	0x64616572
801043b4:	00000000 	nop
801043b8:	6c6c6568 	0x6c6c6568
801043bc:	745f326f 	jalx	817cc9bc <_end+0x168df2c>
801043c0:	61657268 	0x61657268
801043c4:	00000064 	0x64
801043c8:	23232323 	addi	v1,t9,8995
801043cc:	23232323 	addi	v1,t9,8995
801043d0:	23232323 	addi	v1,t9,8995
801043d4:	23232323 	addi	v1,t9,8995
801043d8:	23232323 	addi	v1,t9,8995
801043dc:	23232323 	addi	v1,t9,8995
801043e0:	23232323 	addi	v1,t9,8995
801043e4:	23232323 	addi	v1,t9,8995
801043e8:	230a2323 	addi	t2,t8,8995
801043ec:	20202020 	addi	zero,at,8224
801043f0:	53202020 	beqzl	t9,8010c474 <thread_stk+0x7458>
801043f4:	74726174 	jalx	81c985d0 <_end+0x1b59b40>
801043f8:	52754320 	beql	s3,s5,8011507c <_gp+0x815c>
801043fc:	2e2e2e54 	sltiu	t6,s1,11860
80104400:	2020202e 	addi	zero,at,8238
80104404:	20202020 	addi	zero,at,8224
80104408:	20202020 	addi	zero,at,8224
8010440c:	23230a23 	addi	v1,t9,2595
80104410:	23232323 	addi	v1,t9,8995
80104414:	23232323 	addi	v1,t9,8995
80104418:	23232323 	addi	v1,t9,8995
8010441c:	23232323 	addi	v1,t9,8995
80104420:	23232323 	addi	v1,t9,8995
80104424:	23232323 	addi	v1,t9,8995
80104428:	23232323 	addi	v1,t9,8995
8010442c:	23232323 	addi	v1,t9,8995
80104430:	0000000a 	movz	zero,zero,zero
80104434:	00002024 	and	a0,zero,zero
80104438:	0000000a 	movz	zero,zero,zero
8010443c:	00000000 	nop
80104440:	74617473 	jalx	8185d1cc <_end+0x171e73c>
80104444:	00000000 	nop
80104448:	00007370 	tge	zero,zero,0x1cd
8010444c:	706c6568 	0x706c6568
80104450:	00000000 	nop
80104454:	61656c63 	0x61656c63
80104458:	00000072 	tlt	zero,zero,0x1
8010445c:	0a0a0a0a 	j	88282828 <_end+0x8143d98>
80104460:	0a0a0a0a 	j	88282828 <_end+0x8143d98>
80104464:	0a0a0a0a 	j	88282828 <_end+0x8143d98>
80104468:	0a0a0a0a 	j	88282828 <_end+0x8143d98>
8010446c:	0a0a0a0a 	j	88282828 <_end+0x8143d98>
80104470:	0a0a0a0a 	j	88282828 <_end+0x8143d98>
80104474:	0a0a0a0a 	j	88282828 <_end+0x8143d98>
80104478:	0a0a0a0a 	j	88282828 <_end+0x8143d98>
8010447c:	0a0a0a0a 	j	88282828 <_end+0x8143d98>
80104480:	0a0a0a0a 	j	88282828 <_end+0x8143d98>
80104484:	0a0a0a0a 	j	88282828 <_end+0x8143d98>
80104488:	0a0a0a0a 	j	88282828 <_end+0x8143d98>
8010448c:	0a0a0a0a 	j	88282828 <_end+0x8143d98>
80104490:	0a0a0a0a 	j	88282828 <_end+0x8143d98>
80104494:	0a0a0a0a 	j	88282828 <_end+0x8143d98>
80104498:	0a0a0a0a 	j	88282828 <_end+0x8143d98>
8010449c:	0a0a0a0a 	j	88282828 <_end+0x8143d98>
801044a0:	00000a0a 	0xa0a
801044a4:	6c6c6568 	0x6c6c6568
801044a8:	0000006f 	0x6f
801044ac:	6c656873 	0x6c656873
801044b0:	25203a6c 	addiu	zero,t1,14956
801044b4:	63203a73 	0x63203a73
801044b8:	616d6d6f 	0x616d6d6f
801044bc:	6e20646e 	0x6e20646e
801044c0:	6620746f 	0x6620746f
801044c4:	646e756f 	0x646e756f
801044c8:	0000000a 	movz	zero,zero,zero
801044cc:	20797274 	addi	t9,v1,29300
801044d0:	706c6568 	0x706c6568
801044d4:	0000000a 	movz	zero,zero,zero
801044d8:	2a2a2a2a 	slti	t2,s1,10794
801044dc:	2a2a2a2a 	slti	t2,s1,10794
801044e0:	202a2a2a 	addi	t2,at,10794
801044e4:	54527543 	bnel	v0,s2,801219f4 <_gp+0x14ad4>
801044e8:	61747320 	0x61747320
801044ec:	74736974 	jalx	81cda5d0 <_end+0x1b9bb40>
801044f0:	20736369 	addi	s3,v1,25449
801044f4:	6f666e69 	0x6f666e69
801044f8:	2a2a2a20 	slti	t2,s1,10784
801044fc:	2a2a2a2a 	slti	t2,s1,10794
80104500:	2a2a2a2a 	slti	t2,s1,10794
80104504:	2a2a2a2a 	slti	t2,s1,10794
80104508:	0000000a 	movz	zero,zero,zero
8010450c:	61746f54 	0x61746f54
80104510:	6854206c 	0x6854206c
80104514:	64616572 	0x64616572
80104518:	756f4320 	jalx	85bd0c80 <_end+0x5a921f0>
8010451c:	3a20746e 	xori	zero,s1,0x746e
80104520:	0a782520 	j	89e09480 <_end+0x9cca9f0>
80104524:	00000000 	nop
80104528:	61746f54 	0x61746f54
8010452c:	6f43206c 	0x6f43206c
80104530:	7865746e 	0x7865746e
80104534:	77532074 	jalx	8d4c81d0 <_end+0xd389740>
80104538:	68637469 	0x68637469
8010453c:	756f4320 	jalx	85bd0c80 <_end+0x5a921f0>
80104540:	3a20746e 	xori	zero,s1,0x746e
80104544:	0a782520 	j	89e09480 <_end+0x9cca9f0>
80104548:	00000000 	nop
8010454c:	72727543 	0x72727543
80104550:	20746e65 	addi	s4,v1,28261
80104554:	656d6954 	0x656d6954
80104558:	63695420 	0x63695420
8010455c:	203a206b 	addi	k0,at,8299
80104560:	000a7825 	or	t7,zero,t2
80104564:	2a2a2a2a 	slti	t2,s1,10794
80104568:	2a2a2a2a 	slti	t2,s1,10794
8010456c:	2a2a2a2a 	slti	t2,s1,10794
80104570:	2a2a2a2a 	slti	t2,s1,10794
80104574:	2a2a2a2a 	slti	t2,s1,10794
80104578:	2a2a2a2a 	slti	t2,s1,10794
8010457c:	2a2a2a2a 	slti	t2,s1,10794
80104580:	2a2a2a2a 	slti	t2,s1,10794
80104584:	2a2a2a2a 	slti	t2,s1,10794
80104588:	2a2a2a2a 	slti	t2,s1,10794
8010458c:	2a2a2a2a 	slti	t2,s1,10794
80104590:	2a2a2a2a 	slti	t2,s1,10794
80104594:	000a2a2a 	0xa2a2a
80104598:	6e697270 	0x6e697270
8010459c:	74735f74 	jalx	81cd7dd0 <_end+0x1b99340>
801045a0:	73697461 	0x73697461
801045a4:	73636974 	0x73636974
801045a8:	73757320 	0x73757320
801045ac:	646e6570 	0x646e6570
801045b0:	00000a21 	0xa21
801045b4:	64616552 	0x64616552
801045b8:	20202079 	addi	zero,at,8313
801045bc:	00002020 	add	a0,zero,zero
801045c0:	6e6e7552 	0x6e6e7552
801045c4:	20676e69 	addi	a3,v1,28265
801045c8:	00002020 	add	a0,zero,zero
801045cc:	6e657645 	0x6e657645
801045d0:	61772074 	0x61772074
801045d4:	00007469 	0x7469
801045d8:	636f6c42 	0x636f6c42
801045dc:	2020206b 	addi	zero,at,8299
801045e0:	00002020 	add	a0,zero,zero
801045e4:	616c6544 	0x616c6544
801045e8:	20202079 	addi	zero,at,8313
801045ec:	00002020 	add	a0,zero,zero
801045f0:	6d726554 	0x6d726554
801045f4:	74616e69 	jalx	8185b9a4 <_end+0x171cf14>
801045f8:	00002065 	0x2065
801045fc:	20732520 	addi	s3,v1,9504
80104600:	20202020 	addi	zero,at,8224
80104604:	25202020 	addiu	zero,t1,8224
80104608:	20202073 	addi	zero,at,8307
8010460c:	20202020 	addi	zero,at,8224
80104610:	0a732520 	j	89cc9480 <_end+0x9b8a9f0>
80104614:	00000000 	nop
80104618:	00004449 	0x4449
8010461c:	74617453 	jalx	8185d14c <_end+0x171e6bc>
80104620:	00000065 	0x65
80104624:	656d614e 	0x656d614e
80104628:	00000000 	nop
8010462c:	20783325 	addi	t8,v1,13093
80104630:	20202020 	addi	zero,at,8224
80104634:	25202020 	addiu	zero,t1,8224
80104638:	20202073 	addi	zero,at,8307
8010463c:	000a7325 	0xa7325
80104640:	6e697270 	0x6e697270
80104644:	68745f74 	0x68745f74
80104648:	64616572 	0x64616572
8010464c:	666e695f 	0x666e695f
80104650:	7573206f 	jalx	85cc81bc <_end+0x5b8972c>
80104654:	6e657073 	0x6e657073
80104658:	000a2164 	0xa2164
8010465c:	2a2a2a2a 	slti	t2,s1,10794
80104660:	2a2a2a2a 	slti	t2,s1,10794
80104664:	202a2a2a 	addi	t2,at,10794
80104668:	54527543 	bnel	v0,s2,80121b78 <_gp+0x14c58>
8010466c:	6c654820 	0x6c654820
80104670:	6e492070 	0x6e492070
80104674:	2a206f66 	slti	zero,s1,28518
80104678:	2a2a2a2a 	slti	t2,s1,10794
8010467c:	2a2a2a2a 	slti	t2,s1,10794
80104680:	2a2a2a2a 	slti	t2,s1,10794
80104684:	2a2a2a2a 	slti	t2,s1,10794
80104688:	0a2a2a2a 	j	88a8a8a8 <_end+0x894be18>
8010468c:	74617473 	jalx	8185d1cc <_end+0x171e73c>
80104690:	64202d20 	0x64202d20
80104694:	6c707369 	0x6c707369
80104698:	73207961 	0x73207961
8010469c:	69746174 	0x69746174
801046a0:	63697473 	0x63697473
801046a4:	700a2e73 	0x700a2e73
801046a8:	202d2073 	addi	t5,at,8307
801046ac:	70736964 	0x70736964
801046b0:	2079616c 	addi	t9,v1,24940
801046b4:	65726874 	0x65726874
801046b8:	69206461 	0x69206461
801046bc:	726f666e 	0x726f666e
801046c0:	6974616d 	0x6974616d
801046c4:	2e736e6f 	sltiu	s3,s3,28271
801046c8:	656c630a 	0x656c630a
801046cc:	2d207261 	sltiu	zero,t1,29281
801046d0:	656c6320 	0x656c6320
801046d4:	73206e61 	0x73206e61
801046d8:	65657263 	0x65657263
801046dc:	680a2e6e 	0x680a2e6e
801046e0:	6f6c6c65 	0x6f6c6c65
801046e4:	73202d20 	0x73202d20
801046e8:	6c706d61 	0x6c706d61
801046ec:	54522065 	bnel	v0,s2,8010c884 <thread_stk+0x7868>
801046f0:	73617420 	0x73617420
801046f4:	6173206b 	0x6173206b
801046f8:	72672079 	0x72672079
801046fc:	69746565 	0x69746565
80104700:	0a2e676e 	j	88b99db8 <_end+0x8a5b328>
80104704:	2a2a2a2a 	slti	t2,s1,10794
80104708:	2a2a2a2a 	slti	t2,s1,10794
8010470c:	2a2a2a2a 	slti	t2,s1,10794
80104710:	2a2a2a2a 	slti	t2,s1,10794
80104714:	2a2a2a2a 	slti	t2,s1,10794
80104718:	2a2a2a2a 	slti	t2,s1,10794
8010471c:	2a2a2a2a 	slti	t2,s1,10794
80104720:	2a2a2a2a 	slti	t2,s1,10794
80104724:	2a2a2a2a 	slti	t2,s1,10794
80104728:	2a2a2a2a 	slti	t2,s1,10794
8010472c:	2a2a2a2a 	slti	t2,s1,10794
80104730:	2a2a2a2a 	slti	t2,s1,10794
80104734:	00000a2a 	0xa2a
80104738:	6c6c6548 	0x6c6c6548
8010473c:	6f57206f 	0x6f57206f
80104740:	3a646c72 	xori	a0,s3,0x6c72
80104744:	756f6320 	jalx	85bd8c80 <_end+0x5a9a1f0>
80104748:	3d20746e 	0x3d20746e
8010474c:	2c642520 	sltiu	a0,v1,9504
80104750:	3d207320 	0x3d207320
80104754:	0a642520 	j	89909480 <_end+0x97ca9f0>
80104758:	00000000 	nop
8010475c:	00000001 	movf	zero,zero,$fcc0
80104760:	00000002 	srl	zero,zero,0x0
80104764:	00000002 	srl	zero,zero,0x0
80104768:	00000004 	sllv	zero,zero,zero
8010476c:	00000001 	movf	zero,zero,$fcc0
80104770:	00000002 	srl	zero,zero,0x0
80104774:	00000003 	sra	zero,zero,0x0
80104778:	00000004 	sllv	zero,zero,zero
8010477c:	00000006 	srlv	zero,zero,zero
80104780:	00000008 	jr	zero
80104784:	0000000c 	syscall
80104788:	00000010 	mfhi	zero
8010478c:	00000018 	mult	zero,zero
80104790:	00000020 	add	zero,zero,zero
	...
801047a0:	33323130 	andi	s2,t9,0x3130
801047a4:	37363534 	ori	s6,t9,0x3534
801047a8:	62613938 	0x62613938
801047ac:	66656463 	0x66656463
801047b0:	00000000 	nop
801047b4:	33323130 	andi	s2,t9,0x3130
801047b8:	37363534 	ori	s6,t9,0x3534
801047bc:	42413938 	c0	0x413938
801047c0:	46454443 	c1	0x454443
801047c4:	00000000 	nop
801047c8:	6c756e28 	0x6c756e28
801047cc:	0000296c 	0x296c
801047d0:	80100748 	lb	s0,1864(zero)
801047d4:	80100d8c 	lb	s0,3468(zero)
801047d8:	80100d8c 	lb	s0,3468(zero)
801047dc:	80100d8c 	lb	s0,3468(zero)
801047e0:	80100d8c 	lb	s0,3468(zero)
801047e4:	80100d8c 	lb	s0,3468(zero)
801047e8:	80100d8c 	lb	s0,3468(zero)
801047ec:	80100d8c 	lb	s0,3468(zero)
801047f0:	80100d8c 	lb	s0,3468(zero)
801047f4:	80100d8c 	lb	s0,3468(zero)
801047f8:	80100d8c 	lb	s0,3468(zero)
801047fc:	80100d8c 	lb	s0,3468(zero)
80104800:	80100d8c 	lb	s0,3468(zero)
80104804:	80100d8c 	lb	s0,3468(zero)
80104808:	80100d8c 	lb	s0,3468(zero)
8010480c:	80100d8c 	lb	s0,3468(zero)
80104810:	80100d8c 	lb	s0,3468(zero)
80104814:	80100d8c 	lb	s0,3468(zero)
80104818:	80100d8c 	lb	s0,3468(zero)
8010481c:	80100d8c 	lb	s0,3468(zero)
80104820:	80100d8c 	lb	s0,3468(zero)
80104824:	80100d8c 	lb	s0,3468(zero)
80104828:	80100d8c 	lb	s0,3468(zero)
8010482c:	80100d8c 	lb	s0,3468(zero)
80104830:	80100d8c 	lb	s0,3468(zero)
80104834:	80100d8c 	lb	s0,3468(zero)
80104838:	80100d8c 	lb	s0,3468(zero)
8010483c:	80100d8c 	lb	s0,3468(zero)
80104840:	80100d8c 	lb	s0,3468(zero)
80104844:	80100d8c 	lb	s0,3468(zero)
80104848:	80100d8c 	lb	s0,3468(zero)
8010484c:	80100d8c 	lb	s0,3468(zero)
80104850:	80100738 	lb	s0,1848(zero)
80104854:	80100d8c 	lb	s0,3468(zero)
80104858:	80100d8c 	lb	s0,3468(zero)
8010485c:	8010077c 	lb	s0,1916(zero)
80104860:	80100d8c 	lb	s0,3468(zero)
80104864:	80100d8c 	lb	s0,3468(zero)
80104868:	80100d8c 	lb	s0,3468(zero)
8010486c:	80100d8c 	lb	s0,3468(zero)
80104870:	80100d8c 	lb	s0,3468(zero)
80104874:	80100d8c 	lb	s0,3468(zero)
80104878:	8010078c 	lb	s0,1932(zero)
8010487c:	801007b8 	lb	s0,1976(zero)
80104880:	80100d8c 	lb	s0,3468(zero)
80104884:	801007ac 	lb	s0,1964(zero)
80104888:	801007c0 	lb	s0,1984(zero)
8010488c:	80100d8c 	lb	s0,3468(zero)
80104890:	80100864 	lb	s0,2148(zero)
80104894:	80100874 	lb	s0,2164(zero)
80104898:	80100874 	lb	s0,2164(zero)
8010489c:	80100874 	lb	s0,2164(zero)
801048a0:	80100874 	lb	s0,2164(zero)
801048a4:	80100874 	lb	s0,2164(zero)
801048a8:	80100874 	lb	s0,2164(zero)
801048ac:	80100874 	lb	s0,2164(zero)
801048b0:	80100874 	lb	s0,2164(zero)
801048b4:	80100874 	lb	s0,2164(zero)
801048b8:	80100d8c 	lb	s0,3468(zero)
801048bc:	80100d8c 	lb	s0,3468(zero)
801048c0:	80100d8c 	lb	s0,3468(zero)
801048c4:	80100d8c 	lb	s0,3468(zero)
801048c8:	80100d8c 	lb	s0,3468(zero)
801048cc:	80100d8c 	lb	s0,3468(zero)
801048d0:	80100d8c 	lb	s0,3468(zero)
801048d4:	80100d8c 	lb	s0,3468(zero)
801048d8:	80100d8c 	lb	s0,3468(zero)
801048dc:	80100d8c 	lb	s0,3468(zero)
801048e0:	801008cc 	lb	s0,2252(zero)
801048e4:	80100d8c 	lb	s0,3468(zero)
801048e8:	80100d8c 	lb	s0,3468(zero)
801048ec:	80100d8c 	lb	s0,3468(zero)
801048f0:	80100d8c 	lb	s0,3468(zero)
801048f4:	80100d8c 	lb	s0,3468(zero)
801048f8:	80100d8c 	lb	s0,3468(zero)
801048fc:	80100d8c 	lb	s0,3468(zero)
80104900:	80100b7c 	lb	s0,2940(zero)
80104904:	80100d8c 	lb	s0,3468(zero)
80104908:	80100d8c 	lb	s0,3468(zero)
8010490c:	80100b88 	lb	s0,2952(zero)
80104910:	80100d8c 	lb	s0,3468(zero)
80104914:	80100d8c 	lb	s0,3468(zero)
80104918:	80100d8c 	lb	s0,3468(zero)
8010491c:	80100d8c 	lb	s0,3468(zero)
80104920:	80100d8c 	lb	s0,3468(zero)
80104924:	80100bd0 	lb	s0,3024(zero)
80104928:	80100d8c 	lb	s0,3468(zero)
8010492c:	80100d8c 	lb	s0,3468(zero)
80104930:	80100c14 	lb	s0,3092(zero)
80104934:	80100d8c 	lb	s0,3468(zero)
80104938:	80100d8c 	lb	s0,3468(zero)
8010493c:	80100d8c 	lb	s0,3468(zero)
80104940:	80100d8c 	lb	s0,3468(zero)
80104944:	80100d8c 	lb	s0,3468(zero)
80104948:	80100d8c 	lb	s0,3468(zero)
8010494c:	80100d8c 	lb	s0,3468(zero)
80104950:	80100d8c 	lb	s0,3468(zero)
80104954:	80100d8c 	lb	s0,3468(zero)
80104958:	80100d8c 	lb	s0,3468(zero)
8010495c:	80100c70 	lb	s0,3184(zero)
80104960:	801008d8 	lb	s0,2264(zero)
80104964:	80100d8c 	lb	s0,3468(zero)
80104968:	80100d8c 	lb	s0,3468(zero)
8010496c:	80100d8c 	lb	s0,3468(zero)
80104970:	80100c98 	lb	s0,3224(zero)
80104974:	801008d8 	lb	s0,2264(zero)
80104978:	80100d8c 	lb	s0,3468(zero)
8010497c:	80100d8c 	lb	s0,3468(zero)
80104980:	80100ca8 	lb	s0,3240(zero)
80104984:	80100d8c 	lb	s0,3468(zero)
80104988:	80100cb4 	lb	s0,3252(zero)
8010498c:	80100b94 	lb	s0,2964(zero)
80104990:	80100d0c 	lb	s0,3340(zero)
80104994:	80100d8c 	lb	s0,3468(zero)
80104998:	80100d8c 	lb	s0,3468(zero)
8010499c:	80100d24 	lb	s0,3364(zero)
801049a0:	80100d8c 	lb	s0,3468(zero)
801049a4:	80100bdc 	lb	s0,3036(zero)
801049a8:	80100d8c 	lb	s0,3468(zero)
801049ac:	80100d8c 	lb	s0,3468(zero)
801049b0:	80100c20 	lb	s0,3104(zero)
801049b4:	00006325 	0x6325
801049b8:	00082008 	0x82008
801049bc:	00000000 	nop
801049c0:	74696e69 	jalx	81a5b9a4 <_end+0x191cf14>
801049c4:	5f736f5f 	0x5f736f5f
801049c8:	656d6974 	0x656d6974
801049cc:	000a2e72 	tlt	zero,t2,0xb9
801049d0:	00000001 	movf	zero,zero,$fcc0
801049d4:	00000002 	srl	zero,zero,0x0
801049d8:	00000002 	srl	zero,zero,0x0
801049dc:	00000004 	sllv	zero,zero,zero
801049e0:	00000001 	movf	zero,zero,$fcc0
801049e4:	00000002 	srl	zero,zero,0x0
801049e8:	00000003 	sra	zero,zero,0x0
801049ec:	00000004 	sllv	zero,zero,zero
801049f0:	00000006 	srlv	zero,zero,zero
801049f4:	00000008 	jr	zero
801049f8:	0000000c 	syscall
801049fc:	00000010 	mfhi	zero
80104a00:	00000018 	mult	zero,zero
80104a04:	00000020 	add	zero,zero,zero
	...

80104a10 <FR2n>:
80104a10:	00000001 00000002 00000003 00000004     ................
80104a20:	00000006 00000008 0000000c 00000010     ................
80104a30:	00000018 00000020 00000001 00000002     .... ...........
80104a40:	00000002 00000004 00000001 00000002     ................
80104a50:	00000003 00000004 00000006 00000008     ................
80104a60:	0000000c 00000010 00000018 00000020     ............ ...
80104a70:	6f72657a 00000000 00007461 00003076     zero....at..v0..
80104a80:	00003176 00003061 00003161 00003261     v1..a0..a1..a2..
80104a90:	00003361 00003074 00003174 00003274     a3..t0..t1..t2..
80104aa0:	00003374 00003474 00003574 00003674     t3..t4..t5..t6..
80104ab0:	00003774 00003073 00003173 00003273     t7..s0..s1..s2..
80104ac0:	00003373 00003473 00003573 00003673     s3..s4..s5..s6..
80104ad0:	00003773 00003874 00003974 0000306b     s7..t8..t9..k0..
80104ae0:	0000316b 00007067 00007073 00007066     k1..gp..sp..fp..
80104af0:	00006172 53554143 203d2045 78383025     ra..CAUSE = %08x
80104b00:	43504520 25203d20 0a783830 00000000      EPC = %08x.....
80104b10:	0000000a 20733425 78383025 00000020     ....%4s %08x ...
80104b20:	00000001 00000002 00000002 00000004     ................
80104b30:	00000001 00000002 00000003 00000004     ................
80104b40:	00000006 00000008 0000000c 00000010     ................
80104b50:	00000018 00000020 00000000 00000000     .... ...........
80104b60:	00000001 00000002 00000002 00000004     ................
80104b70:	00000001 00000002 00000003 00000004     ................
80104b80:	00000006 00000008 0000000c 00000010     ................
80104b90:	00000018 00000020 801021d8 8010220c     .... ....!..."..
80104ba0:	8010220c 8010220c 8010220c 80102218     ."..."..."..."..
80104bb0:	80102248 80102278 801022a8 00000000     H"..x"..."......
80104bc0:	00000001 00000002 00000002 00000004     ................
80104bd0:	00000001 00000002 00000003 00000004     ................
80104be0:	00000006 00000008 0000000c 00000010     ................
80104bf0:	00000018 00000020 00000000 00000000     .... ...........
80104c00:	00000001 00000002 00000002 00000004     ................
80104c10:	00000001 00000002 00000003 00000004     ................
80104c20:	00000006 00000008 0000000c 00000010     ................
80104c30:	00000018 00000020 00000000 00000000     .... ...........
80104c40:	656c6469 7268742d 00646165 72617453     idle-thread.Star
80104c50:	64692074 7420656c 61657268 000a2164     t idle thread!..
80104c60:	656c6469 72687420 20646165 6c656979     idle thread yiel
80104c70:	000a2164 00000001 00000002 00000002     d!..............
80104c80:	00000004 00000001 00000002 00000003     ................
80104c90:	00000004 00000006 00000008 0000000c     ................
80104ca0:	00000010 00000018 00000020 00000000     ........ .......
80104cb0:	65726874 635f6461 74616572 64253a65     thread_create:%d
80104cc0:	0000000a 65726874 645f6461 79616c65     ....thread_delay
80104cd0:	0a64253a 00000000 00000001 00000002     :%d.............
80104ce0:	00000002 00000004 00000001 00000002     ................
80104cf0:	00000003 00000004 00000006 00000008     ................
80104d00:	0000000c 00000010 00000018 00000020     ............ ...
80104d10:	00000001 00000002 00000002 00000004     ................
80104d20:	00000001 00000002 00000003 00000004     ................
80104d30:	00000006 00000008 0000000c 00000010     ................
80104d40:	00000018 00000020 00000000 00000000     .... ...........
80104d50:	00000001 00000002 00000002 00000004     ................
80104d60:	00000001 00000002 00000003 00000004     ................
80104d70:	00000006 00000008 0000000c 00000010     ................
80104d80:	00000018 00000020 00000000 00000000     .... ...........
